Archive member included to satisfy reference by file (symbol)

E:/SmashProjects/EveryoneHasWitchTime/code-mod-framework/lib/libnx_min/nx/lib\libnx_min.a(switch_crt0.o)
                              (_start)
E:/SmashProjects/EveryoneHasWitchTime/code-mod-framework/lib/libnx_min/nx/lib\libnx_min.a(exception.o)
                              E:/SmashProjects/EveryoneHasWitchTime/code-mod-framework/lib/libnx_min/nx/lib\libnx_min.a(switch_crt0.o) (__libnx_exception_entry)
E:/SmashProjects/EveryoneHasWitchTime/code-mod-framework/lib/libnx_min/nx/lib\libnx_min.a(argv.o)
                              E:/SmashProjects/EveryoneHasWitchTime/code-mod-framework/lib/libnx_min/nx/lib\libnx_min.a(switch_crt0.o) (__system_argv)
E:/SmashProjects/EveryoneHasWitchTime/code-mod-framework/lib/libnx_min/nx/lib\libnx_min.a(env.o)
                              E:/SmashProjects/EveryoneHasWitchTime/code-mod-framework/lib/libnx_min/nx/lib\libnx_min.a(argv.o) (envIsNso)
E:/SmashProjects/EveryoneHasWitchTime/code-mod-framework/lib/libnx_min/nx/lib\libnx_min.a(init.o)
                              E:/SmashProjects/EveryoneHasWitchTime/code-mod-framework/lib/libnx_min/nx/lib\libnx_min.a(exception.o) (__nx_exceptiondump)
E:/SmashProjects/EveryoneHasWitchTime/code-mod-framework/lib/libnx_min/nx/lib\libnx_min.a(hosversion.o)
                              E:/SmashProjects/EveryoneHasWitchTime/code-mod-framework/lib/libnx_min/nx/lib\libnx_min.a(init.o) (hosversionSet)
E:/SmashProjects/EveryoneHasWitchTime/code-mod-framework/lib/libnx_min/nx/lib\libnx_min.a(dynamic.o)
                              E:/SmashProjects/EveryoneHasWitchTime/code-mod-framework/lib/libnx_min/nx/lib\libnx_min.a(switch_crt0.o) (__nx_dynamic)
E:/SmashProjects/EveryoneHasWitchTime/code-mod-framework/lib/libnx_min/nx/lib\libnx_min.a(fs_dev.o)
                              E:/SmashProjects/EveryoneHasWitchTime/code-mod-framework/lib/libnx_min/nx/lib\libnx_min.a(init.o) (fsdevMountSdmc)
E:/SmashProjects/EveryoneHasWitchTime/code-mod-framework/lib/libnx_min/nx/lib\libnx_min.a(decode_utf8.o)
                              E:/SmashProjects/EveryoneHasWitchTime/code-mod-framework/lib/libnx_min/nx/lib\libnx_min.a(fs_dev.o) (decode_utf8)
E:/SmashProjects/EveryoneHasWitchTime/code-mod-framework/lib/libnx_min/nx/lib\libnx_min.a(svc.o)
                              E:/SmashProjects/EveryoneHasWitchTime/code-mod-framework/lib/libnx_min/nx/lib\libnx_min.a(init.o) (svcSetHeapSize)
E:/SmashProjects/EveryoneHasWitchTime/code-mod-framework/lib/libnx_min/nx/lib\libnx_min.a(readtp.o)
                              E:/SmashProjects/EveryoneHasWitchTime/code-mod-framework/lib/libnx_min/nx/lib\libnx_min.a(fs_dev.o) (__aarch64_read_tp)
E:/SmashProjects/EveryoneHasWitchTime/code-mod-framework/lib/libnx_min/nx/lib\libnx_min.a(virtmem.o)
                              E:/SmashProjects/EveryoneHasWitchTime/code-mod-framework/lib/libnx_min/nx/lib\libnx_min.a(init.o) (virtmemSetup)
E:/SmashProjects/EveryoneHasWitchTime/code-mod-framework/lib/libnx_min/nx/lib\libnx_min.a(mutex.o)
                              E:/SmashProjects/EveryoneHasWitchTime/code-mod-framework/lib/libnx_min/nx/lib\libnx_min.a(virtmem.o) (mutexLock)
E:/SmashProjects/EveryoneHasWitchTime/code-mod-framework/lib/libnx_min/nx/lib\libnx_min.a(fs.o)
                              E:/SmashProjects/EveryoneHasWitchTime/code-mod-framework/lib/libnx_min/nx/lib\libnx_min.a(init.o) (fsInitialize)
E:/SmashProjects/EveryoneHasWitchTime/code-mod-framework/lib/libnx_min/nx/lib\libnx_min.a(set.o)
                              E:/SmashProjects/EveryoneHasWitchTime/code-mod-framework/lib/libnx_min/nx/lib\libnx_min.a(init.o) (setsysInitialize)
E:/SmashProjects/EveryoneHasWitchTime/code-mod-framework/lib/libnx_min/nx/lib\libnx_min.a(fatal.o)
                              E:/SmashProjects/EveryoneHasWitchTime/code-mod-framework/lib/libnx_min/nx/lib\libnx_min.a(env.o) (fatalSimple)
E:/SmashProjects/EveryoneHasWitchTime/code-mod-framework/lib/libnx_min/nx/lib\libnx_min.a(sm.o)
                              E:/SmashProjects/EveryoneHasWitchTime/code-mod-framework/lib/libnx_min/nx/lib\libnx_min.a(env.o) (smAddOverrideHandle)
E:/SmashProjects/EveryoneHasWitchTime/code-mod-framework/lib/libnx_min/nx/lib\libnx_min.a(hid.o)
                              E:/SmashProjects/EveryoneHasWitchTime/code-mod-framework/lib/libnx_min/nx/lib\libnx_min.a(init.o) (hidExit)
E:/SmashProjects/EveryoneHasWitchTime/code-mod-framework/lib/libnx_min/nx/lib\libnx_min.a(time.o)
                              E:/SmashProjects/EveryoneHasWitchTime/code-mod-framework/lib/libnx_min/nx/lib\libnx_min.a(init.o) (timeExit)
E:/SmashProjects/EveryoneHasWitchTime/code-mod-framework/lib/libnx_min/nx/lib\libnx_min.a(applet.o)
                              E:/SmashProjects/EveryoneHasWitchTime/code-mod-framework/lib/libnx_min/nx/lib\libnx_min.a(hid.o) (appletGetAppletResourceUserId)
E:/SmashProjects/EveryoneHasWitchTime/code-mod-framework/lib/libnx_min/nx/lib\libnx_min.a(newlib.o)
                              E:/SmashProjects/EveryoneHasWitchTime/code-mod-framework/lib/libnx_min/nx/lib\libnx_min.a(init.o) (__libnx_init_time)
E:/SmashProjects/EveryoneHasWitchTime/code-mod-framework/lib/libnx_min/nx/lib\libnx_min.a(thread.o)
                              E:/SmashProjects/EveryoneHasWitchTime/code-mod-framework/lib/libnx_min/nx/lib\libnx_min.a(newlib.o) (threadCreate)
E:/SmashProjects/EveryoneHasWitchTime/code-mod-framework/lib/libnx_min/nx/lib\libnx_min.a(condvar.o)
                              E:/SmashProjects/EveryoneHasWitchTime/code-mod-framework/lib/libnx_min/nx/lib\libnx_min.a(newlib.o) (condvarWaitTimeout)
E:/SmashProjects/EveryoneHasWitchTime/code-mod-framework/lib/libnx_min/nx/lib\libnx_min.a(event.o)
                              E:/SmashProjects/EveryoneHasWitchTime/code-mod-framework/lib/libnx_min/nx/lib\libnx_min.a(set.o) (eventLoadRemote)
E:/SmashProjects/EveryoneHasWitchTime/code-mod-framework/lib/libnx_min/nx/lib\libnx_min.a(tmem.o)
                              E:/SmashProjects/EveryoneHasWitchTime/code-mod-framework/lib/libnx_min/nx/lib\libnx_min.a(applet.o) (tmemCreate)
E:/SmashProjects/EveryoneHasWitchTime/code-mod-framework/lib/libnx_min/nx/lib\libnx_min.a(rwlock.o)
                              E:/SmashProjects/EveryoneHasWitchTime/code-mod-framework/lib/libnx_min/nx/lib\libnx_min.a(hid.o) (rwlockReadLock)
E:/SmashProjects/EveryoneHasWitchTime/code-mod-framework/lib/libnx_min/nx/lib\libnx_min.a(wait.o)
                              E:/SmashProjects/EveryoneHasWitchTime/code-mod-framework/lib/libnx_min/nx/lib\libnx_min.a(applet.o) (waitObjects)
E:/SmashProjects/EveryoneHasWitchTime/code-mod-framework/lib/libnx_min/nx/lib\libnx_min.a(shmem.o)
                              E:/SmashProjects/EveryoneHasWitchTime/code-mod-framework/lib/libnx_min/nx/lib\libnx_min.a(hid.o) (shmemLoadRemote)
E:/SmashProjects/EveryoneHasWitchTime/code-mod-framework/lib/libnx_min/nx/lib\libnx_min.a(detect.o)
                              E:/SmashProjects/EveryoneHasWitchTime/code-mod-framework/lib/libnx_min/nx/lib\libnx_min.a(fatal.o) (detectKernelVersion)
E:/SmashProjects/EveryoneHasWitchTime/code-mod-framework/lib/libnx_min/nx/lib\libnx_min.a(apm.o)
                              E:/SmashProjects/EveryoneHasWitchTime/code-mod-framework/lib/libnx_min/nx/lib\libnx_min.a(applet.o) (apmExit)
e:/appsprograms/devkitpro/devkita64/bin/../lib/gcc/aarch64-none-elf/8.3.0/../../../../aarch64-none-elf/lib/pic\libg.a(lib_a-bsearch.o)
                              E:/SmashProjects/EveryoneHasWitchTime/code-mod-framework/lib/libnx_min/nx/lib\libnx_min.a(fs_dev.o) (bsearch)
e:/appsprograms/devkitpro/devkita64/bin/../lib/gcc/aarch64-none-elf/8.3.0/../../../../aarch64-none-elf/lib/pic\libg.a(lib_a-ctype_.o)
                              E:/SmashProjects/EveryoneHasWitchTime/code-mod-framework/lib/libnx_min/nx/lib\libnx_min.a(argv.o) (_ctype_)
e:/appsprograms/devkitpro/devkita64/bin/../lib/gcc/aarch64-none-elf/8.3.0/../../../../aarch64-none-elf/lib/pic\libg.a(lib_a-errno.o)
                              E:/SmashProjects/EveryoneHasWitchTime/code-mod-framework/lib/libnx_min/nx/lib\libnx_min.a(fs_dev.o) (__errno)
e:/appsprograms/devkitpro/devkita64/bin/../lib/gcc/aarch64-none-elf/8.3.0/../../../../aarch64-none-elf/lib/pic\libg.a(lib_a-exit.o)
                              E:/SmashProjects/EveryoneHasWitchTime/code-mod-framework/lib/libnx_min/nx/lib\libnx_min.a(switch_crt0.o) (exit)
e:/appsprograms/devkitpro/devkita64/bin/../lib/gcc/aarch64-none-elf/8.3.0/../../../../aarch64-none-elf/lib/pic\libg.a(lib_a-fini.o)
                              main.o (__libc_fini_array)
e:/appsprograms/devkitpro/devkita64/bin/../lib/gcc/aarch64-none-elf/8.3.0/../../../../aarch64-none-elf/lib/pic\libg.a(lib_a-impure.o)
                              e:/appsprograms/devkitpro/devkita64/bin/../lib/gcc/aarch64-none-elf/8.3.0/../../../../aarch64-none-elf/lib/pic\libg.a(lib_a-exit.o) (_global_impure_ptr)
e:/appsprograms/devkitpro/devkita64/bin/../lib/gcc/aarch64-none-elf/8.3.0/../../../../aarch64-none-elf/lib/pic\libg.a(lib_a-init.o)
                              main.o (__libc_init_array)
e:/appsprograms/devkitpro/devkita64/bin/../lib/gcc/aarch64-none-elf/8.3.0/../../../../aarch64-none-elf/lib/pic\libg.a(lib_a-malign.o)
                              E:/SmashProjects/EveryoneHasWitchTime/code-mod-framework/lib/libnx_min/nx/lib\libnx_min.a(hid.o) (memalign)
e:/appsprograms/devkitpro/devkita64/bin/../lib/gcc/aarch64-none-elf/8.3.0/../../../../aarch64-none-elf/lib/pic\libg.a(lib_a-malignr.o)
                              e:/appsprograms/devkitpro/devkita64/bin/../lib/gcc/aarch64-none-elf/8.3.0/../../../../aarch64-none-elf/lib/pic\libg.a(lib_a-malign.o) (_memalign_r)
e:/appsprograms/devkitpro/devkita64/bin/../lib/gcc/aarch64-none-elf/8.3.0/../../../../aarch64-none-elf/lib/pic\libg.a(lib_a-malloc.o)
                              E:/SmashProjects/EveryoneHasWitchTime/code-mod-framework/lib/libnx_min/nx/lib\libnx_min.a(newlib.o) (malloc)
e:/appsprograms/devkitpro/devkita64/bin/../lib/gcc/aarch64-none-elf/8.3.0/../../../../aarch64-none-elf/lib/pic\libg.a(lib_a-mallocr.o)
                              e:/appsprograms/devkitpro/devkita64/bin/../lib/gcc/aarch64-none-elf/8.3.0/../../../../aarch64-none-elf/lib/pic\libg.a(lib_a-malignr.o) (_malloc_r)
e:/appsprograms/devkitpro/devkita64/bin/../lib/gcc/aarch64-none-elf/8.3.0/../../../../aarch64-none-elf/lib/pic\libg.a(lib_a-memcpy.o)
                              E:/SmashProjects/EveryoneHasWitchTime/code-mod-framework/lib/libnx_min/nx/lib\libnx_min.a(fs_dev.o) (memcpy)
e:/appsprograms/devkitpro/devkita64/bin/../lib/gcc/aarch64-none-elf/8.3.0/../../../../aarch64-none-elf/lib/pic\libg.a(lib_a-memset.o)
                              E:/SmashProjects/EveryoneHasWitchTime/code-mod-framework/lib/libnx_min/nx/lib\libnx_min.a(argv.o) (memset)
e:/appsprograms/devkitpro/devkita64/bin/../lib/gcc/aarch64-none-elf/8.3.0/../../../../aarch64-none-elf/lib/pic\libg.a(lib_a-mlock.o)
                              e:/appsprograms/devkitpro/devkita64/bin/../lib/gcc/aarch64-none-elf/8.3.0/../../../../aarch64-none-elf/lib/pic\libg.a(lib_a-malignr.o) (__malloc_lock)
e:/appsprograms/devkitpro/devkita64/bin/../lib/gcc/aarch64-none-elf/8.3.0/../../../../aarch64-none-elf/lib/pic\libg.a(lib_a-setenv.o)
                              E:/SmashProjects/EveryoneHasWitchTime/code-mod-framework/lib/libnx_min/nx/lib\libnx_min.a(newlib.o) (setenv)
e:/appsprograms/devkitpro/devkita64/bin/../lib/gcc/aarch64-none-elf/8.3.0/../../../../aarch64-none-elf/lib/pic\libg.a(lib_a-setenv_r.o)
                              e:/appsprograms/devkitpro/devkita64/bin/../lib/gcc/aarch64-none-elf/8.3.0/../../../../aarch64-none-elf/lib/pic\libg.a(lib_a-setenv.o) (_setenv_r)
e:/appsprograms/devkitpro/devkita64/bin/../lib/gcc/aarch64-none-elf/8.3.0/../../../../aarch64-none-elf/lib/pic\libg.a(lib_a-strchr.o)
                              raygun_printer.o (strchr)
e:/appsprograms/devkitpro/devkita64/bin/../lib/gcc/aarch64-none-elf/8.3.0/../../../../aarch64-none-elf/lib/pic\libg.a(lib_a-strcmp.o)
                              saltysd_helper.o (strcmp)
e:/appsprograms/devkitpro/devkita64/bin/../lib/gcc/aarch64-none-elf/8.3.0/../../../../aarch64-none-elf/lib/pic\libg.a(lib_a-strcpy.o)
                              E:/SmashProjects/EveryoneHasWitchTime/code-mod-framework/lib/libnx_min/nx/lib\libnx_min.a(env.o) (strcpy)
e:/appsprograms/devkitpro/devkita64/bin/../lib/gcc/aarch64-none-elf/8.3.0/../../../../aarch64-none-elf/lib/pic\libg.a(lib_a-strlen.o)
                              acmd_wrapper.o (strlen)
e:/appsprograms/devkitpro/devkita64/bin/../lib/gcc/aarch64-none-elf/8.3.0/../../../../aarch64-none-elf/lib/pic\libg.a(lib_a-strncat.o)
                              E:/SmashProjects/EveryoneHasWitchTime/code-mod-framework/lib/libnx_min/nx/lib\libnx_min.a(fs_dev.o) (strncat)
e:/appsprograms/devkitpro/devkita64/bin/../lib/gcc/aarch64-none-elf/8.3.0/../../../../aarch64-none-elf/lib/pic\libg.a(lib_a-strncmp.o)
                              saltysd_helper.o (strncmp)
e:/appsprograms/devkitpro/devkita64/bin/../lib/gcc/aarch64-none-elf/8.3.0/../../../../aarch64-none-elf/lib/pic\libg.a(lib_a-strncpy.o)
                              E:/SmashProjects/EveryoneHasWitchTime/code-mod-framework/lib/libnx_min/nx/lib\libnx_min.a(argv.o) (strncpy)
e:/appsprograms/devkitpro/devkita64/bin/../lib/gcc/aarch64-none-elf/8.3.0/../../../../aarch64-none-elf/lib/pic\libg.a(lib_a-strnlen.o)
                              E:/SmashProjects/EveryoneHasWitchTime/code-mod-framework/lib/libnx_min/nx/lib\libnx_min.a(fs_dev.o) (strnlen)
e:/appsprograms/devkitpro/devkita64/bin/../lib/gcc/aarch64-none-elf/8.3.0/../../../../aarch64-none-elf/lib/pic\libg.a(lib_a-toupper.o)
                              raygun_printer.o (toupper)
e:/appsprograms/devkitpro/devkita64/bin/../lib/gcc/aarch64-none-elf/8.3.0/../../../../aarch64-none-elf/lib/pic\libg.a(lib_a-vsnprintf.o)
                              raygun_printer.o (vsnprintf)
e:/appsprograms/devkitpro/devkita64/bin/../lib/gcc/aarch64-none-elf/8.3.0/../../../../aarch64-none-elf/lib/pic\libg.a(lib_a-__call_atexit.o)
                              e:/appsprograms/devkitpro/devkita64/bin/../lib/gcc/aarch64-none-elf/8.3.0/../../../../aarch64-none-elf/lib/pic\libg.a(lib_a-exit.o) (__call_exitprocs)
e:/appsprograms/devkitpro/devkita64/bin/../lib/gcc/aarch64-none-elf/8.3.0/../../../../aarch64-none-elf/lib/pic\libg.a(lib_a-environ.o)
                              e:/appsprograms/devkitpro/devkita64/bin/../lib/gcc/aarch64-none-elf/8.3.0/../../../../aarch64-none-elf/lib/pic\libg.a(lib_a-setenv_r.o) (environ)
e:/appsprograms/devkitpro/devkita64/bin/../lib/gcc/aarch64-none-elf/8.3.0/../../../../aarch64-none-elf/lib/pic\libg.a(lib_a-envlock.o)
                              e:/appsprograms/devkitpro/devkita64/bin/../lib/gcc/aarch64-none-elf/8.3.0/../../../../aarch64-none-elf/lib/pic\libg.a(lib_a-setenv_r.o) (__env_lock)
e:/appsprograms/devkitpro/devkita64/bin/../lib/gcc/aarch64-none-elf/8.3.0/../../../../aarch64-none-elf/lib/pic\libg.a(lib_a-freer.o)
                              e:/appsprograms/devkitpro/devkita64/bin/../lib/gcc/aarch64-none-elf/8.3.0/../../../../aarch64-none-elf/lib/pic\libg.a(lib_a-malignr.o) (_free_r)
e:/appsprograms/devkitpro/devkita64/bin/../lib/gcc/aarch64-none-elf/8.3.0/../../../../aarch64-none-elf/lib/pic\libg.a(lib_a-getenv_r.o)
                              e:/appsprograms/devkitpro/devkita64/bin/../lib/gcc/aarch64-none-elf/8.3.0/../../../../aarch64-none-elf/lib/pic\libg.a(lib_a-setenv_r.o) (_findenv_r)
e:/appsprograms/devkitpro/devkita64/bin/../lib/gcc/aarch64-none-elf/8.3.0/../../../../aarch64-none-elf/lib/pic\libg.a(lib_a-reallocr.o)
                              e:/appsprograms/devkitpro/devkita64/bin/../lib/gcc/aarch64-none-elf/8.3.0/../../../../aarch64-none-elf/lib/pic\libg.a(lib_a-setenv_r.o) (_realloc_r)
e:/appsprograms/devkitpro/devkita64/bin/../lib/gcc/aarch64-none-elf/8.3.0/../../../../aarch64-none-elf/lib/pic\libg.a(lib_a-svfprintf.o)
                              e:/appsprograms/devkitpro/devkita64/bin/../lib/gcc/aarch64-none-elf/8.3.0/../../../../aarch64-none-elf/lib/pic\libg.a(lib_a-vsnprintf.o) (_svfprintf_r)
e:/appsprograms/devkitpro/devkita64/bin/../lib/gcc/aarch64-none-elf/8.3.0/../../../../aarch64-none-elf/lib/pic\libg.a(lib_a-wcrtomb.o)
                              e:/appsprograms/devkitpro/devkita64/bin/../lib/gcc/aarch64-none-elf/8.3.0/../../../../aarch64-none-elf/lib/pic\libg.a(lib_a-svfprintf.o) (_wcrtomb_r)
e:/appsprograms/devkitpro/devkita64/bin/../lib/gcc/aarch64-none-elf/8.3.0/../../../../aarch64-none-elf/lib/pic\libg.a(lib_a-wcsrtombs.o)
                              e:/appsprograms/devkitpro/devkita64/bin/../lib/gcc/aarch64-none-elf/8.3.0/../../../../aarch64-none-elf/lib/pic\libg.a(lib_a-svfprintf.o) (_wcsrtombs_r)
e:/appsprograms/devkitpro/devkita64/bin/../lib/gcc/aarch64-none-elf/8.3.0/../../../../aarch64-none-elf/lib/pic\libg.a(lib_a-dtoa.o)
                              e:/appsprograms/devkitpro/devkita64/bin/../lib/gcc/aarch64-none-elf/8.3.0/../../../../aarch64-none-elf/lib/pic\libg.a(lib_a-svfprintf.o) (_dtoa_r)
e:/appsprograms/devkitpro/devkita64/bin/../lib/gcc/aarch64-none-elf/8.3.0/../../../../aarch64-none-elf/lib/pic\libg.a(lib_a-localeconv.o)
                              e:/appsprograms/devkitpro/devkita64/bin/../lib/gcc/aarch64-none-elf/8.3.0/../../../../aarch64-none-elf/lib/pic\libg.a(lib_a-svfprintf.o) (_localeconv_r)
e:/appsprograms/devkitpro/devkita64/bin/../lib/gcc/aarch64-none-elf/8.3.0/../../../../aarch64-none-elf/lib/pic\libg.a(lib_a-locale.o)
                              e:/appsprograms/devkitpro/devkita64/bin/../lib/gcc/aarch64-none-elf/8.3.0/../../../../aarch64-none-elf/lib/pic\libg.a(lib_a-svfprintf.o) (__global_locale)
e:/appsprograms/devkitpro/devkita64/bin/../lib/gcc/aarch64-none-elf/8.3.0/../../../../aarch64-none-elf/lib/pic\libg.a(lib_a-mbtowc_r.o)
                              e:/appsprograms/devkitpro/devkita64/bin/../lib/gcc/aarch64-none-elf/8.3.0/../../../../aarch64-none-elf/lib/pic\libg.a(lib_a-locale.o) (__ascii_mbtowc)
e:/appsprograms/devkitpro/devkita64/bin/../lib/gcc/aarch64-none-elf/8.3.0/../../../../aarch64-none-elf/lib/pic\libg.a(lib_a-memchr.o)
                              e:/appsprograms/devkitpro/devkita64/bin/../lib/gcc/aarch64-none-elf/8.3.0/../../../../aarch64-none-elf/lib/pic\libg.a(lib_a-svfprintf.o) (memchr)
e:/appsprograms/devkitpro/devkita64/bin/../lib/gcc/aarch64-none-elf/8.3.0/../../../../aarch64-none-elf/lib/pic\libg.a(lib_a-memmove.o)
                              e:/appsprograms/devkitpro/devkita64/bin/../lib/gcc/aarch64-none-elf/8.3.0/../../../../aarch64-none-elf/lib/pic\libg.a(lib_a-reallocr.o) (memmove)
e:/appsprograms/devkitpro/devkita64/bin/../lib/gcc/aarch64-none-elf/8.3.0/../../../../aarch64-none-elf/lib/pic\libg.a(lib_a-mprec.o)
                              e:/appsprograms/devkitpro/devkita64/bin/../lib/gcc/aarch64-none-elf/8.3.0/../../../../aarch64-none-elf/lib/pic\libg.a(lib_a-dtoa.o) (_Balloc)
e:/appsprograms/devkitpro/devkita64/bin/../lib/gcc/aarch64-none-elf/8.3.0/../../../../aarch64-none-elf/lib/pic\libg.a(lib_a-s_frexp.o)
                              e:/appsprograms/devkitpro/devkita64/bin/../lib/gcc/aarch64-none-elf/8.3.0/../../../../aarch64-none-elf/lib/pic\libg.a(lib_a-svfprintf.o) (frexp)
e:/appsprograms/devkitpro/devkita64/bin/../lib/gcc/aarch64-none-elf/8.3.0/../../../../aarch64-none-elf/lib/pic\libg.a(lib_a-strcasecmp.o)
                              e:/appsprograms/devkitpro/devkita64/bin/../lib/gcc/aarch64-none-elf/8.3.0/../../../../aarch64-none-elf/lib/pic\libg.a(lib_a-locale.o) (strcasecmp)
e:/appsprograms/devkitpro/devkita64/bin/../lib/gcc/aarch64-none-elf/8.3.0/../../../../aarch64-none-elf/lib/pic\libg.a(lib_a-strcat.o)
                              e:/appsprograms/devkitpro/devkita64/bin/../lib/gcc/aarch64-none-elf/8.3.0/../../../../aarch64-none-elf/lib/pic\libg.a(lib_a-locale.o) (strcat)
e:/appsprograms/devkitpro/devkita64/bin/../lib/gcc/aarch64-none-elf/8.3.0/../../../../aarch64-none-elf/lib/pic\libg.a(lib_a-strlcpy.o)
                              e:/appsprograms/devkitpro/devkita64/bin/../lib/gcc/aarch64-none-elf/8.3.0/../../../../aarch64-none-elf/lib/pic\libg.a(lib_a-locale.o) (strlcpy)
e:/appsprograms/devkitpro/devkita64/bin/../lib/gcc/aarch64-none-elf/8.3.0/../../../../aarch64-none-elf/lib/pic\libg.a(lib_a-strncasecmp.o)
                              e:/appsprograms/devkitpro/devkita64/bin/../lib/gcc/aarch64-none-elf/8.3.0/../../../../aarch64-none-elf/lib/pic\libg.a(lib_a-locale.o) (strncasecmp)
e:/appsprograms/devkitpro/devkita64/bin/../lib/gcc/aarch64-none-elf/8.3.0/../../../../aarch64-none-elf/lib/pic\libg.a(lib_a-strtol.o)
                              e:/appsprograms/devkitpro/devkita64/bin/../lib/gcc/aarch64-none-elf/8.3.0/../../../../aarch64-none-elf/lib/pic\libg.a(lib_a-locale.o) (strtol)
e:/appsprograms/devkitpro/devkita64/bin/../lib/gcc/aarch64-none-elf/8.3.0/../../../../aarch64-none-elf/lib/pic\libg.a(lib_a-svfiprintf.o)
                              e:/appsprograms/devkitpro/devkita64/bin/../lib/gcc/aarch64-none-elf/8.3.0/../../../../aarch64-none-elf/lib/pic\libg.a(lib_a-svfprintf.o) (__chclass)
e:/appsprograms/devkitpro/devkita64/bin/../lib/gcc/aarch64-none-elf/8.3.0/../../../../aarch64-none-elf/lib/pic\libg.a(lib_a-wcsnrtombs.o)
                              e:/appsprograms/devkitpro/devkita64/bin/../lib/gcc/aarch64-none-elf/8.3.0/../../../../aarch64-none-elf/lib/pic\libg.a(lib_a-wcsrtombs.o) (_wcsnrtombs_r)
e:/appsprograms/devkitpro/devkita64/bin/../lib/gcc/aarch64-none-elf/8.3.0/../../../../aarch64-none-elf/lib/pic\libg.a(lib_a-wctomb_r.o)
                              e:/appsprograms/devkitpro/devkita64/bin/../lib/gcc/aarch64-none-elf/8.3.0/../../../../aarch64-none-elf/lib/pic\libg.a(lib_a-locale.o) (__ascii_wctomb)
e:/appsprograms/devkitpro/devkita64/bin/../lib/gcc/aarch64-none-elf/8.3.0/../../../../aarch64-none-elf/lib/pic\libg.a(lib_a-callocr.o)
                              e:/appsprograms/devkitpro/devkita64/bin/../lib/gcc/aarch64-none-elf/8.3.0/../../../../aarch64-none-elf/lib/pic\libg.a(lib_a-mprec.o) (_calloc_r)
e:/appsprograms/devkitpro/devkita64/bin/../lib/gcc/aarch64-none-elf/8.3.0/../../../../aarch64-none-elf/lib/pic\libsysbase.a(iosupport.o)
                              E:/SmashProjects/EveryoneHasWitchTime/code-mod-framework/lib/libnx_min/nx/lib\libnx_min.a(fs_dev.o) (setDefaultDevice)
e:/appsprograms/devkitpro/devkita64/bin/../lib/gcc/aarch64-none-elf/8.3.0/../../../../aarch64-none-elf/lib/pic\libsysbase.a(sbrk.o)
                              e:/appsprograms/devkitpro/devkita64/bin/../lib/gcc/aarch64-none-elf/8.3.0/../../../../aarch64-none-elf/lib/pic\libg.a(lib_a-mallocr.o) (_sbrk_r)
e:/appsprograms/devkitpro/devkita64/bin/../lib/gcc/aarch64-none-elf/8.3.0/../../../../aarch64-none-elf/lib/pic\libsysbase.a(_exit.o)
                              e:/appsprograms/devkitpro/devkita64/bin/../lib/gcc/aarch64-none-elf/8.3.0/../../../../aarch64-none-elf/lib/pic\libg.a(lib_a-exit.o) (_exit)
e:/appsprograms/devkitpro/devkita64/bin/../lib/gcc/aarch64-none-elf/8.3.0/../../../../aarch64-none-elf/lib/pic\libsysbase.a(malloc_vars.o)
                              main.o (fake_heap_start)
e:/appsprograms/devkitpro/devkita64/bin/../lib/gcc/aarch64-none-elf/8.3.0/../../../../aarch64-none-elf/lib/pic\libsysbase.a(chdir.o)
                              E:/SmashProjects/EveryoneHasWitchTime/code-mod-framework/lib/libnx_min/nx/lib\libnx_min.a(fs_dev.o) (chdir)
e:/appsprograms/devkitpro/devkita64/bin/../lib/gcc/aarch64-none-elf/8.3.0/../../../../aarch64-none-elf/lib/pic\libsysbase.a(locks.o)
                              E:/SmashProjects/EveryoneHasWitchTime/code-mod-framework/lib/libnx_min/nx/lib\libnx_min.a(newlib.o) (timespec2nsec)
e:/appsprograms/devkitpro/devkita64/bin/../lib/gcc/aarch64-none-elf/8.3.0/../../../../aarch64-none-elf/lib/pic\libsysbase.a(getreent.o)
                              E:/SmashProjects/EveryoneHasWitchTime/code-mod-framework/lib/libnx_min/nx/lib\libnx_min.a(fs_dev.o) (__getreent)
e:/appsprograms/devkitpro/devkita64/bin/../lib/gcc/aarch64-none-elf/8.3.0/../../../../aarch64-none-elf/lib/pic\libsysbase.a(clocks.o)
                              e:/appsprograms/devkitpro/devkita64/bin/../lib/gcc/aarch64-none-elf/8.3.0/../../../../aarch64-none-elf/lib/pic\libsysbase.a(locks.o) (clock_gettime)
e:/appsprograms/devkitpro/devkita64/bin/../lib/gcc/aarch64-none-elf/8.3.0/pic\libgcc.a(trunctfdf2.o)
                              e:/appsprograms/devkitpro/devkita64/bin/../lib/gcc/aarch64-none-elf/8.3.0/../../../../aarch64-none-elf/lib/pic\libg.a(lib_a-svfprintf.o) (__trunctfdf2)
e:/appsprograms/devkitpro/devkita64/bin/../lib/gcc/aarch64-none-elf/8.3.0/pic\libgcc.a(sfp-exceptions.o)
                              e:/appsprograms/devkitpro/devkita64/bin/../lib/gcc/aarch64-none-elf/8.3.0/pic\libgcc.a(trunctfdf2.o) (__sfp_handle_exceptions)
e:/appsprograms/devkitpro/devkita64/bin/../lib/gcc/aarch64-none-elf/8.3.0/../../../../aarch64-none-elf/lib/pic\libg.a(lib_a-strrchr.o)
                              e:/appsprograms/devkitpro/devkita64/bin/../lib/gcc/aarch64-none-elf/8.3.0/../../../../aarch64-none-elf/lib/pic\libsysbase.a(chdir.o) (strrchr)

Allocating common symbols
Common symbol       size              file

__nx_exceptiondump  0x340             E:/SmashProjects/EveryoneHasWitchTime/code-mod-framework/lib/libnx_min/nx/lib\libnx_min.a(init.o)
__system_argv       0x8               E:/SmashProjects/EveryoneHasWitchTime/code-mod-framework/lib/libnx_min/nx/lib\libnx_min.a(argv.o)
__system_argc       0x4               E:/SmashProjects/EveryoneHasWitchTime/code-mod-framework/lib/libnx_min/nx/lib\libnx_min.a(argv.o)
__stack_top         0x8               E:/SmashProjects/EveryoneHasWitchTime/code-mod-framework/lib/libnx_min/nx/lib\libnx_min.a(init.o)

Discarded input sections

 .text          0x0000000000000000        0x0 e:/appsprograms/devkitpro/devkita64/bin/../lib/gcc/aarch64-none-elf/8.3.0/pic/crti.o
 .data          0x0000000000000000        0x0 e:/appsprograms/devkitpro/devkita64/bin/../lib/gcc/aarch64-none-elf/8.3.0/pic/crti.o
 .bss           0x0000000000000000        0x0 e:/appsprograms/devkitpro/devkita64/bin/../lib/gcc/aarch64-none-elf/8.3.0/pic/crti.o
 .text          0x0000000000000000        0x0 e:/appsprograms/devkitpro/devkita64/bin/../lib/gcc/aarch64-none-elf/8.3.0/pic/crtbegin.o
 .data          0x0000000000000000        0x0 e:/appsprograms/devkitpro/devkita64/bin/../lib/gcc/aarch64-none-elf/8.3.0/pic/crtbegin.o
 .bss           0x0000000000000000        0x0 e:/appsprograms/devkitpro/devkita64/bin/../lib/gcc/aarch64-none-elf/8.3.0/pic/crtbegin.o
 .data.__dso_handle
                0x0000000000000000        0x8 e:/appsprograms/devkitpro/devkita64/bin/../lib/gcc/aarch64-none-elf/8.3.0/pic/crtbegin.o
 .comment       0x0000000000000000       0x23 e:/appsprograms/devkitpro/devkita64/bin/../lib/gcc/aarch64-none-elf/8.3.0/pic/crtbegin.o
 .comment       0x0000000000000000       0x23 main.o
 .data          0x0000000000000000        0x0 acmd_wrapper.o
 .bss           0x0000000000000000        0x0 acmd_wrapper.o
 .comment       0x0000000000000000       0x23 acmd_wrapper.o
 .data          0x0000000000000000        0x0 saltysd_helper.o
 .comment       0x0000000000000000       0x23 saltysd_helper.o
 .data          0x0000000000000000        0x0 lua_bind_hash.o
 .bss           0x0000000000000000        0x0 lua_bind_hash.o
 .comment       0x0000000000000000       0x23 lua_bind_hash.o
 .data          0x0000000000000000        0x0 l2c_imports.o
 .bss           0x0000000000000000        0x0 l2c_imports.o
 .comment       0x0000000000000000       0x23 l2c_imports.o
 .data          0x0000000000000000        0x0 raygun_printer.o
 .bss           0x0000000000000000        0x0 raygun_printer.o
 .comment       0x0000000000000000       0x23 raygun_printer.o
 .text          0x0000000000000000        0x0 E:/SmashProjects/EveryoneHasWitchTime/code-mod-framework/lib/libnx_min/nx/lib\libnx_min.a(switch_crt0.o)
 .data          0x0000000000000000        0x0 E:/SmashProjects/EveryoneHasWitchTime/code-mod-framework/lib/libnx_min/nx/lib\libnx_min.a(switch_crt0.o)
 .bss           0x0000000000000000        0x0 E:/SmashProjects/EveryoneHasWitchTime/code-mod-framework/lib/libnx_min/nx/lib\libnx_min.a(switch_crt0.o)
 .debug_line    0x0000000000000000       0xc3 E:/SmashProjects/EveryoneHasWitchTime/code-mod-framework/lib/libnx_min/nx/lib\libnx_min.a(switch_crt0.o)
 .debug_info    0x0000000000000000       0x2e E:/SmashProjects/EveryoneHasWitchTime/code-mod-framework/lib/libnx_min/nx/lib\libnx_min.a(switch_crt0.o)
 .debug_abbrev  0x0000000000000000       0x14 E:/SmashProjects/EveryoneHasWitchTime/code-mod-framework/lib/libnx_min/nx/lib\libnx_min.a(switch_crt0.o)
 .debug_aranges
                0x0000000000000000       0x30 E:/SmashProjects/EveryoneHasWitchTime/code-mod-framework/lib/libnx_min/nx/lib\libnx_min.a(switch_crt0.o)
 .debug_str     0x0000000000000000       0xc1 E:/SmashProjects/EveryoneHasWitchTime/code-mod-framework/lib/libnx_min/nx/lib\libnx_min.a(switch_crt0.o)
 .text          0x0000000000000000        0x0 E:/SmashProjects/EveryoneHasWitchTime/code-mod-framework/lib/libnx_min/nx/lib\libnx_min.a(exception.o)
 .data          0x0000000000000000        0x0 E:/SmashProjects/EveryoneHasWitchTime/code-mod-framework/lib/libnx_min/nx/lib\libnx_min.a(exception.o)
 .bss           0x0000000000000000        0x0 E:/SmashProjects/EveryoneHasWitchTime/code-mod-framework/lib/libnx_min/nx/lib\libnx_min.a(exception.o)
 .debug_line    0x0000000000000000      0x11e E:/SmashProjects/EveryoneHasWitchTime/code-mod-framework/lib/libnx_min/nx/lib\libnx_min.a(exception.o)
 .debug_info    0x0000000000000000       0x22 E:/SmashProjects/EveryoneHasWitchTime/code-mod-framework/lib/libnx_min/nx/lib\libnx_min.a(exception.o)
 .debug_abbrev  0x0000000000000000       0x12 E:/SmashProjects/EveryoneHasWitchTime/code-mod-framework/lib/libnx_min/nx/lib\libnx_min.a(exception.o)
 .debug_aranges
                0x0000000000000000       0x40 E:/SmashProjects/EveryoneHasWitchTime/code-mod-framework/lib/libnx_min/nx/lib\libnx_min.a(exception.o)
 .debug_str     0x0000000000000000       0xbf E:/SmashProjects/EveryoneHasWitchTime/code-mod-framework/lib/libnx_min/nx/lib\libnx_min.a(exception.o)
 .debug_ranges  0x0000000000000000       0x40 E:/SmashProjects/EveryoneHasWitchTime/code-mod-framework/lib/libnx_min/nx/lib\libnx_min.a(exception.o)
 .text          0x0000000000000000        0x0 E:/SmashProjects/EveryoneHasWitchTime/code-mod-framework/lib/libnx_min/nx/lib\libnx_min.a(argv.o)
 .data          0x0000000000000000        0x0 E:/SmashProjects/EveryoneHasWitchTime/code-mod-framework/lib/libnx_min/nx/lib\libnx_min.a(argv.o)
 .bss           0x0000000000000000        0x0 E:/SmashProjects/EveryoneHasWitchTime/code-mod-framework/lib/libnx_min/nx/lib\libnx_min.a(argv.o)
 .debug_info    0x0000000000000000      0xe43 E:/SmashProjects/EveryoneHasWitchTime/code-mod-framework/lib/libnx_min/nx/lib\libnx_min.a(argv.o)
 .debug_abbrev  0x0000000000000000      0x2de E:/SmashProjects/EveryoneHasWitchTime/code-mod-framework/lib/libnx_min/nx/lib\libnx_min.a(argv.o)
 .debug_loc     0x0000000000000000      0x6a8 E:/SmashProjects/EveryoneHasWitchTime/code-mod-framework/lib/libnx_min/nx/lib\libnx_min.a(argv.o)
 .debug_aranges
                0x0000000000000000       0x30 E:/SmashProjects/EveryoneHasWitchTime/code-mod-framework/lib/libnx_min/nx/lib\libnx_min.a(argv.o)
 .debug_ranges  0x0000000000000000       0x20 E:/SmashProjects/EveryoneHasWitchTime/code-mod-framework/lib/libnx_min/nx/lib\libnx_min.a(argv.o)
 .debug_line    0x0000000000000000      0x64d E:/SmashProjects/EveryoneHasWitchTime/code-mod-framework/lib/libnx_min/nx/lib\libnx_min.a(argv.o)
 .debug_str     0x0000000000000000      0x874 E:/SmashProjects/EveryoneHasWitchTime/code-mod-framework/lib/libnx_min/nx/lib\libnx_min.a(argv.o)
 .comment       0x0000000000000000       0x23 E:/SmashProjects/EveryoneHasWitchTime/code-mod-framework/lib/libnx_min/nx/lib\libnx_min.a(argv.o)
 .text          0x0000000000000000        0x0 E:/SmashProjects/EveryoneHasWitchTime/code-mod-framework/lib/libnx_min/nx/lib\libnx_min.a(env.o)
 .data          0x0000000000000000        0x0 E:/SmashProjects/EveryoneHasWitchTime/code-mod-framework/lib/libnx_min/nx/lib\libnx_min.a(env.o)
 .bss           0x0000000000000000        0x0 E:/SmashProjects/EveryoneHasWitchTime/code-mod-framework/lib/libnx_min/nx/lib\libnx_min.a(env.o)
 .debug_info    0x0000000000000000     0x111a E:/SmashProjects/EveryoneHasWitchTime/code-mod-framework/lib/libnx_min/nx/lib\libnx_min.a(env.o)
 .debug_abbrev  0x0000000000000000      0x322 E:/SmashProjects/EveryoneHasWitchTime/code-mod-framework/lib/libnx_min/nx/lib\libnx_min.a(env.o)
 .debug_loc     0x0000000000000000      0x362 E:/SmashProjects/EveryoneHasWitchTime/code-mod-framework/lib/libnx_min/nx/lib\libnx_min.a(env.o)
 .debug_aranges
                0x0000000000000000      0x130 E:/SmashProjects/EveryoneHasWitchTime/code-mod-framework/lib/libnx_min/nx/lib\libnx_min.a(env.o)
 .debug_ranges  0x0000000000000000      0x120 E:/SmashProjects/EveryoneHasWitchTime/code-mod-framework/lib/libnx_min/nx/lib\libnx_min.a(env.o)
 .debug_line    0x0000000000000000      0x6fe E:/SmashProjects/EveryoneHasWitchTime/code-mod-framework/lib/libnx_min/nx/lib\libnx_min.a(env.o)
 .debug_str     0x0000000000000000     0x107e E:/SmashProjects/EveryoneHasWitchTime/code-mod-framework/lib/libnx_min/nx/lib\libnx_min.a(env.o)
 .comment       0x0000000000000000       0x23 E:/SmashProjects/EveryoneHasWitchTime/code-mod-framework/lib/libnx_min/nx/lib\libnx_min.a(env.o)
 .text          0x0000000000000000        0x0 E:/SmashProjects/EveryoneHasWitchTime/code-mod-framework/lib/libnx_min/nx/lib\libnx_min.a(init.o)
 .data          0x0000000000000000        0x0 E:/SmashProjects/EveryoneHasWitchTime/code-mod-framework/lib/libnx_min/nx/lib\libnx_min.a(init.o)
 .bss           0x0000000000000000        0x0 E:/SmashProjects/EveryoneHasWitchTime/code-mod-framework/lib/libnx_min/nx/lib\libnx_min.a(init.o)
 .text.__libnx_init
                0x0000000000000000       0x28 E:/SmashProjects/EveryoneHasWitchTime/code-mod-framework/lib/libnx_min/nx/lib\libnx_min.a(init.o)
 .text.__libnx_exit
                0x0000000000000000       0x20 E:/SmashProjects/EveryoneHasWitchTime/code-mod-framework/lib/libnx_min/nx/lib\libnx_min.a(init.o)
 .debug_info    0x0000000000000000      0xce2 E:/SmashProjects/EveryoneHasWitchTime/code-mod-framework/lib/libnx_min/nx/lib\libnx_min.a(init.o)
 .debug_abbrev  0x0000000000000000      0x2a1 E:/SmashProjects/EveryoneHasWitchTime/code-mod-framework/lib/libnx_min/nx/lib\libnx_min.a(init.o)
 .debug_loc     0x0000000000000000      0x34a E:/SmashProjects/EveryoneHasWitchTime/code-mod-framework/lib/libnx_min/nx/lib\libnx_min.a(init.o)
 .debug_aranges
                0x0000000000000000       0x70 E:/SmashProjects/EveryoneHasWitchTime/code-mod-framework/lib/libnx_min/nx/lib\libnx_min.a(init.o)
 .debug_ranges  0x0000000000000000       0xa0 E:/SmashProjects/EveryoneHasWitchTime/code-mod-framework/lib/libnx_min/nx/lib\libnx_min.a(init.o)
 .debug_line    0x0000000000000000      0x685 E:/SmashProjects/EveryoneHasWitchTime/code-mod-framework/lib/libnx_min/nx/lib\libnx_min.a(init.o)
 .debug_str     0x0000000000000000      0xf19 E:/SmashProjects/EveryoneHasWitchTime/code-mod-framework/lib/libnx_min/nx/lib\libnx_min.a(init.o)
 .comment       0x0000000000000000       0x23 E:/SmashProjects/EveryoneHasWitchTime/code-mod-framework/lib/libnx_min/nx/lib\libnx_min.a(init.o)
 .text          0x0000000000000000        0x0 E:/SmashProjects/EveryoneHasWitchTime/code-mod-framework/lib/libnx_min/nx/lib\libnx_min.a(hosversion.o)
 .data          0x0000000000000000        0x0 E:/SmashProjects/EveryoneHasWitchTime/code-mod-framework/lib/libnx_min/nx/lib\libnx_min.a(hosversion.o)
 .bss           0x0000000000000000        0x0 E:/SmashProjects/EveryoneHasWitchTime/code-mod-framework/lib/libnx_min/nx/lib\libnx_min.a(hosversion.o)
 .debug_info    0x0000000000000000      0x103 E:/SmashProjects/EveryoneHasWitchTime/code-mod-framework/lib/libnx_min/nx/lib\libnx_min.a(hosversion.o)
 .debug_abbrev  0x0000000000000000       0xa2 E:/SmashProjects/EveryoneHasWitchTime/code-mod-framework/lib/libnx_min/nx/lib\libnx_min.a(hosversion.o)
 .debug_aranges
                0x0000000000000000       0x40 E:/SmashProjects/EveryoneHasWitchTime/code-mod-framework/lib/libnx_min/nx/lib\libnx_min.a(hosversion.o)
 .debug_ranges  0x0000000000000000       0x30 E:/SmashProjects/EveryoneHasWitchTime/code-mod-framework/lib/libnx_min/nx/lib\libnx_min.a(hosversion.o)
 .debug_line    0x0000000000000000      0x1b0 E:/SmashProjects/EveryoneHasWitchTime/code-mod-framework/lib/libnx_min/nx/lib\libnx_min.a(hosversion.o)
 .debug_str     0x0000000000000000      0x234 E:/SmashProjects/EveryoneHasWitchTime/code-mod-framework/lib/libnx_min/nx/lib\libnx_min.a(hosversion.o)
 .comment       0x0000000000000000       0x23 E:/SmashProjects/EveryoneHasWitchTime/code-mod-framework/lib/libnx_min/nx/lib\libnx_min.a(hosversion.o)
 .text          0x0000000000000000        0x0 E:/SmashProjects/EveryoneHasWitchTime/code-mod-framework/lib/libnx_min/nx/lib\libnx_min.a(dynamic.o)
 .data          0x0000000000000000        0x0 E:/SmashProjects/EveryoneHasWitchTime/code-mod-framework/lib/libnx_min/nx/lib\libnx_min.a(dynamic.o)
 .bss           0x0000000000000000        0x0 E:/SmashProjects/EveryoneHasWitchTime/code-mod-framework/lib/libnx_min/nx/lib\libnx_min.a(dynamic.o)
 .debug_info    0x0000000000000000      0x3c9 E:/SmashProjects/EveryoneHasWitchTime/code-mod-framework/lib/libnx_min/nx/lib\libnx_min.a(dynamic.o)
 .debug_abbrev  0x0000000000000000      0x16b E:/SmashProjects/EveryoneHasWitchTime/code-mod-framework/lib/libnx_min/nx/lib\libnx_min.a(dynamic.o)
 .debug_loc     0x0000000000000000      0x1b8 E:/SmashProjects/EveryoneHasWitchTime/code-mod-framework/lib/libnx_min/nx/lib\libnx_min.a(dynamic.o)
 .debug_aranges
                0x0000000000000000       0x30 E:/SmashProjects/EveryoneHasWitchTime/code-mod-framework/lib/libnx_min/nx/lib\libnx_min.a(dynamic.o)
 .debug_ranges  0x0000000000000000       0x20 E:/SmashProjects/EveryoneHasWitchTime/code-mod-framework/lib/libnx_min/nx/lib\libnx_min.a(dynamic.o)
 .debug_line    0x0000000000000000      0x2df E:/SmashProjects/EveryoneHasWitchTime/code-mod-framework/lib/libnx_min/nx/lib\libnx_min.a(dynamic.o)
 .debug_str     0x0000000000000000      0x837 E:/SmashProjects/EveryoneHasWitchTime/code-mod-framework/lib/libnx_min/nx/lib\libnx_min.a(dynamic.o)
 .comment       0x0000000000000000       0x23 E:/SmashProjects/EveryoneHasWitchTime/code-mod-framework/lib/libnx_min/nx/lib\libnx_min.a(dynamic.o)
 .text          0x0000000000000000        0x0 E:/SmashProjects/EveryoneHasWitchTime/code-mod-framework/lib/libnx_min/nx/lib\libnx_min.a(fs_dev.o)
 .data          0x0000000000000000        0x0 E:/SmashProjects/EveryoneHasWitchTime/code-mod-framework/lib/libnx_min/nx/lib\libnx_min.a(fs_dev.o)
 .bss           0x0000000000000000        0x0 E:/SmashProjects/EveryoneHasWitchTime/code-mod-framework/lib/libnx_min/nx/lib\libnx_min.a(fs_dev.o)
 .debug_info    0x0000000000000000     0x411e E:/SmashProjects/EveryoneHasWitchTime/code-mod-framework/lib/libnx_min/nx/lib\libnx_min.a(fs_dev.o)
 .debug_abbrev  0x0000000000000000      0x5b7 E:/SmashProjects/EveryoneHasWitchTime/code-mod-framework/lib/libnx_min/nx/lib\libnx_min.a(fs_dev.o)
 .debug_loc     0x0000000000000000     0x4332 E:/SmashProjects/EveryoneHasWitchTime/code-mod-framework/lib/libnx_min/nx/lib\libnx_min.a(fs_dev.o)
 .debug_aranges
                0x0000000000000000      0x2a0 E:/SmashProjects/EveryoneHasWitchTime/code-mod-framework/lib/libnx_min/nx/lib\libnx_min.a(fs_dev.o)
 .debug_ranges  0x0000000000000000      0x670 E:/SmashProjects/EveryoneHasWitchTime/code-mod-framework/lib/libnx_min/nx/lib\libnx_min.a(fs_dev.o)
 .debug_line    0x0000000000000000     0x1a73 E:/SmashProjects/EveryoneHasWitchTime/code-mod-framework/lib/libnx_min/nx/lib\libnx_min.a(fs_dev.o)
 .debug_str     0x0000000000000000     0x1939 E:/SmashProjects/EveryoneHasWitchTime/code-mod-framework/lib/libnx_min/nx/lib\libnx_min.a(fs_dev.o)
 .comment       0x0000000000000000       0x23 E:/SmashProjects/EveryoneHasWitchTime/code-mod-framework/lib/libnx_min/nx/lib\libnx_min.a(fs_dev.o)
 .text          0x0000000000000000        0x0 E:/SmashProjects/EveryoneHasWitchTime/code-mod-framework/lib/libnx_min/nx/lib\libnx_min.a(decode_utf8.o)
 .data          0x0000000000000000        0x0 E:/SmashProjects/EveryoneHasWitchTime/code-mod-framework/lib/libnx_min/nx/lib\libnx_min.a(decode_utf8.o)
 .bss           0x0000000000000000        0x0 E:/SmashProjects/EveryoneHasWitchTime/code-mod-framework/lib/libnx_min/nx/lib\libnx_min.a(decode_utf8.o)
 .debug_info    0x0000000000000000      0x170 E:/SmashProjects/EveryoneHasWitchTime/code-mod-framework/lib/libnx_min/nx/lib\libnx_min.a(decode_utf8.o)
 .debug_abbrev  0x0000000000000000       0x9e E:/SmashProjects/EveryoneHasWitchTime/code-mod-framework/lib/libnx_min/nx/lib\libnx_min.a(decode_utf8.o)
 .debug_loc     0x0000000000000000      0x334 E:/SmashProjects/EveryoneHasWitchTime/code-mod-framework/lib/libnx_min/nx/lib\libnx_min.a(decode_utf8.o)
 .debug_aranges
                0x0000000000000000       0x30 E:/SmashProjects/EveryoneHasWitchTime/code-mod-framework/lib/libnx_min/nx/lib\libnx_min.a(decode_utf8.o)
 .debug_ranges  0x0000000000000000       0x20 E:/SmashProjects/EveryoneHasWitchTime/code-mod-framework/lib/libnx_min/nx/lib\libnx_min.a(decode_utf8.o)
 .debug_line    0x0000000000000000      0x28a E:/SmashProjects/EveryoneHasWitchTime/code-mod-framework/lib/libnx_min/nx/lib\libnx_min.a(decode_utf8.o)
 .debug_str     0x0000000000000000      0x259 E:/SmashProjects/EveryoneHasWitchTime/code-mod-framework/lib/libnx_min/nx/lib\libnx_min.a(decode_utf8.o)
 .comment       0x0000000000000000       0x23 E:/SmashProjects/EveryoneHasWitchTime/code-mod-framework/lib/libnx_min/nx/lib\libnx_min.a(decode_utf8.o)
 .text          0x0000000000000000        0x0 E:/SmashProjects/EveryoneHasWitchTime/code-mod-framework/lib/libnx_min/nx/lib\libnx_min.a(svc.o)
 .data          0x0000000000000000        0x0 E:/SmashProjects/EveryoneHasWitchTime/code-mod-framework/lib/libnx_min/nx/lib\libnx_min.a(svc.o)
 .bss           0x0000000000000000        0x0 E:/SmashProjects/EveryoneHasWitchTime/code-mod-framework/lib/libnx_min/nx/lib\libnx_min.a(svc.o)
 .debug_line    0x0000000000000000      0x92d E:/SmashProjects/EveryoneHasWitchTime/code-mod-framework/lib/libnx_min/nx/lib\libnx_min.a(svc.o)
 .debug_info    0x0000000000000000       0x22 E:/SmashProjects/EveryoneHasWitchTime/code-mod-framework/lib/libnx_min/nx/lib\libnx_min.a(svc.o)
 .debug_abbrev  0x0000000000000000       0x12 E:/SmashProjects/EveryoneHasWitchTime/code-mod-framework/lib/libnx_min/nx/lib\libnx_min.a(svc.o)
 .debug_aranges
                0x0000000000000000      0x660 E:/SmashProjects/EveryoneHasWitchTime/code-mod-framework/lib/libnx_min/nx/lib\libnx_min.a(svc.o)
 .debug_str     0x0000000000000000       0xb8 E:/SmashProjects/EveryoneHasWitchTime/code-mod-framework/lib/libnx_min/nx/lib\libnx_min.a(svc.o)
 .debug_ranges  0x0000000000000000      0x660 E:/SmashProjects/EveryoneHasWitchTime/code-mod-framework/lib/libnx_min/nx/lib\libnx_min.a(svc.o)
 .text          0x0000000000000000        0x0 E:/SmashProjects/EveryoneHasWitchTime/code-mod-framework/lib/libnx_min/nx/lib\libnx_min.a(readtp.o)
 .data          0x0000000000000000        0x0 E:/SmashProjects/EveryoneHasWitchTime/code-mod-framework/lib/libnx_min/nx/lib\libnx_min.a(readtp.o)
 .bss           0x0000000000000000        0x0 E:/SmashProjects/EveryoneHasWitchTime/code-mod-framework/lib/libnx_min/nx/lib\libnx_min.a(readtp.o)
 .debug_line    0x0000000000000000       0x93 E:/SmashProjects/EveryoneHasWitchTime/code-mod-framework/lib/libnx_min/nx/lib\libnx_min.a(readtp.o)
 .debug_info    0x0000000000000000       0x2e E:/SmashProjects/EveryoneHasWitchTime/code-mod-framework/lib/libnx_min/nx/lib\libnx_min.a(readtp.o)
 .debug_abbrev  0x0000000000000000       0x14 E:/SmashProjects/EveryoneHasWitchTime/code-mod-framework/lib/libnx_min/nx/lib\libnx_min.a(readtp.o)
 .debug_aranges
                0x0000000000000000       0x30 E:/SmashProjects/EveryoneHasWitchTime/code-mod-framework/lib/libnx_min/nx/lib\libnx_min.a(readtp.o)
 .debug_str     0x0000000000000000       0xbc E:/SmashProjects/EveryoneHasWitchTime/code-mod-framework/lib/libnx_min/nx/lib\libnx_min.a(readtp.o)
 .text          0x0000000000000000        0x0 E:/SmashProjects/EveryoneHasWitchTime/code-mod-framework/lib/libnx_min/nx/lib\libnx_min.a(virtmem.o)
 .data          0x0000000000000000        0x0 E:/SmashProjects/EveryoneHasWitchTime/code-mod-framework/lib/libnx_min/nx/lib\libnx_min.a(virtmem.o)
 .bss           0x0000000000000000        0x0 E:/SmashProjects/EveryoneHasWitchTime/code-mod-framework/lib/libnx_min/nx/lib\libnx_min.a(virtmem.o)
 .debug_info    0x0000000000000000      0xb52 E:/SmashProjects/EveryoneHasWitchTime/code-mod-framework/lib/libnx_min/nx/lib\libnx_min.a(virtmem.o)
 .debug_abbrev  0x0000000000000000      0x2cf E:/SmashProjects/EveryoneHasWitchTime/code-mod-framework/lib/libnx_min/nx/lib\libnx_min.a(virtmem.o)
 .debug_loc     0x0000000000000000      0x668 E:/SmashProjects/EveryoneHasWitchTime/code-mod-framework/lib/libnx_min/nx/lib\libnx_min.a(virtmem.o)
 .debug_aranges
                0x0000000000000000       0x70 E:/SmashProjects/EveryoneHasWitchTime/code-mod-framework/lib/libnx_min/nx/lib\libnx_min.a(virtmem.o)
 .debug_ranges  0x0000000000000000      0x170 E:/SmashProjects/EveryoneHasWitchTime/code-mod-framework/lib/libnx_min/nx/lib\libnx_min.a(virtmem.o)
 .debug_line    0x0000000000000000      0x60f E:/SmashProjects/EveryoneHasWitchTime/code-mod-framework/lib/libnx_min/nx/lib\libnx_min.a(virtmem.o)
 .debug_str     0x0000000000000000      0xbfa E:/SmashProjects/EveryoneHasWitchTime/code-mod-framework/lib/libnx_min/nx/lib\libnx_min.a(virtmem.o)
 .comment       0x0000000000000000       0x23 E:/SmashProjects/EveryoneHasWitchTime/code-mod-framework/lib/libnx_min/nx/lib\libnx_min.a(virtmem.o)
 .text          0x0000000000000000        0x0 E:/SmashProjects/EveryoneHasWitchTime/code-mod-framework/lib/libnx_min/nx/lib\libnx_min.a(mutex.o)
 .data          0x0000000000000000        0x0 E:/SmashProjects/EveryoneHasWitchTime/code-mod-framework/lib/libnx_min/nx/lib\libnx_min.a(mutex.o)
 .bss           0x0000000000000000        0x0 E:/SmashProjects/EveryoneHasWitchTime/code-mod-framework/lib/libnx_min/nx/lib\libnx_min.a(mutex.o)
 .debug_info    0x0000000000000000      0x782 E:/SmashProjects/EveryoneHasWitchTime/code-mod-framework/lib/libnx_min/nx/lib\libnx_min.a(mutex.o)
 .debug_abbrev  0x0000000000000000      0x1fe E:/SmashProjects/EveryoneHasWitchTime/code-mod-framework/lib/libnx_min/nx/lib\libnx_min.a(mutex.o)
 .debug_loc     0x0000000000000000      0x3d1 E:/SmashProjects/EveryoneHasWitchTime/code-mod-framework/lib/libnx_min/nx/lib\libnx_min.a(mutex.o)
 .debug_aranges
                0x0000000000000000       0x80 E:/SmashProjects/EveryoneHasWitchTime/code-mod-framework/lib/libnx_min/nx/lib\libnx_min.a(mutex.o)
 .debug_ranges  0x0000000000000000      0x470 E:/SmashProjects/EveryoneHasWitchTime/code-mod-framework/lib/libnx_min/nx/lib\libnx_min.a(mutex.o)
 .debug_line    0x0000000000000000      0x5e6 E:/SmashProjects/EveryoneHasWitchTime/code-mod-framework/lib/libnx_min/nx/lib\libnx_min.a(mutex.o)
 .debug_str     0x0000000000000000      0x3a4 E:/SmashProjects/EveryoneHasWitchTime/code-mod-framework/lib/libnx_min/nx/lib\libnx_min.a(mutex.o)
 .comment       0x0000000000000000       0x23 E:/SmashProjects/EveryoneHasWitchTime/code-mod-framework/lib/libnx_min/nx/lib\libnx_min.a(mutex.o)
 .text          0x0000000000000000        0x0 E:/SmashProjects/EveryoneHasWitchTime/code-mod-framework/lib/libnx_min/nx/lib\libnx_min.a(fs.o)
 .data          0x0000000000000000        0x0 E:/SmashProjects/EveryoneHasWitchTime/code-mod-framework/lib/libnx_min/nx/lib\libnx_min.a(fs.o)
 .bss           0x0000000000000000        0x0 E:/SmashProjects/EveryoneHasWitchTime/code-mod-framework/lib/libnx_min/nx/lib\libnx_min.a(fs.o)
 .debug_info    0x0000000000000000    0x148db E:/SmashProjects/EveryoneHasWitchTime/code-mod-framework/lib/libnx_min/nx/lib\libnx_min.a(fs.o)
 .debug_abbrev  0x0000000000000000      0x6cd E:/SmashProjects/EveryoneHasWitchTime/code-mod-framework/lib/libnx_min/nx/lib\libnx_min.a(fs.o)
 .debug_loc     0x0000000000000000    0x23e9b E:/SmashProjects/EveryoneHasWitchTime/code-mod-framework/lib/libnx_min/nx/lib\libnx_min.a(fs.o)
 .debug_aranges
                0x0000000000000000      0x4a0 E:/SmashProjects/EveryoneHasWitchTime/code-mod-framework/lib/libnx_min/nx/lib\libnx_min.a(fs.o)
 .debug_ranges  0x0000000000000000     0xb5b0 E:/SmashProjects/EveryoneHasWitchTime/code-mod-framework/lib/libnx_min/nx/lib\libnx_min.a(fs.o)
 .debug_line    0x0000000000000000     0xb1b2 E:/SmashProjects/EveryoneHasWitchTime/code-mod-framework/lib/libnx_min/nx/lib\libnx_min.a(fs.o)
 .debug_str     0x0000000000000000     0x23e6 E:/SmashProjects/EveryoneHasWitchTime/code-mod-framework/lib/libnx_min/nx/lib\libnx_min.a(fs.o)
 .comment       0x0000000000000000       0x23 E:/SmashProjects/EveryoneHasWitchTime/code-mod-framework/lib/libnx_min/nx/lib\libnx_min.a(fs.o)
 .text          0x0000000000000000        0x0 E:/SmashProjects/EveryoneHasWitchTime/code-mod-framework/lib/libnx_min/nx/lib\libnx_min.a(set.o)
 .data          0x0000000000000000        0x0 E:/SmashProjects/EveryoneHasWitchTime/code-mod-framework/lib/libnx_min/nx/lib\libnx_min.a(set.o)
 .bss           0x0000000000000000        0x0 E:/SmashProjects/EveryoneHasWitchTime/code-mod-framework/lib/libnx_min/nx/lib\libnx_min.a(set.o)
 .debug_info    0x0000000000000000     0x692b E:/SmashProjects/EveryoneHasWitchTime/code-mod-framework/lib/libnx_min/nx/lib\libnx_min.a(set.o)
 .debug_abbrev  0x0000000000000000      0x5eb E:/SmashProjects/EveryoneHasWitchTime/code-mod-framework/lib/libnx_min/nx/lib\libnx_min.a(set.o)
 .debug_loc     0x0000000000000000     0xc88f E:/SmashProjects/EveryoneHasWitchTime/code-mod-framework/lib/libnx_min/nx/lib\libnx_min.a(set.o)
 .debug_aranges
                0x0000000000000000      0x1d0 E:/SmashProjects/EveryoneHasWitchTime/code-mod-framework/lib/libnx_min/nx/lib\libnx_min.a(set.o)
 .debug_ranges  0x0000000000000000     0x25f0 E:/SmashProjects/EveryoneHasWitchTime/code-mod-framework/lib/libnx_min/nx/lib\libnx_min.a(set.o)
 .debug_line    0x0000000000000000     0x3101 E:/SmashProjects/EveryoneHasWitchTime/code-mod-framework/lib/libnx_min/nx/lib\libnx_min.a(set.o)
 .debug_str     0x0000000000000000     0x1b23 E:/SmashProjects/EveryoneHasWitchTime/code-mod-framework/lib/libnx_min/nx/lib\libnx_min.a(set.o)
 .comment       0x0000000000000000       0x23 E:/SmashProjects/EveryoneHasWitchTime/code-mod-framework/lib/libnx_min/nx/lib\libnx_min.a(set.o)
 .text          0x0000000000000000        0x0 E:/SmashProjects/EveryoneHasWitchTime/code-mod-framework/lib/libnx_min/nx/lib\libnx_min.a(fatal.o)
 .data          0x0000000000000000        0x0 E:/SmashProjects/EveryoneHasWitchTime/code-mod-framework/lib/libnx_min/nx/lib\libnx_min.a(fatal.o)
 .bss           0x0000000000000000        0x0 E:/SmashProjects/EveryoneHasWitchTime/code-mod-framework/lib/libnx_min/nx/lib\libnx_min.a(fatal.o)
 .debug_info    0x0000000000000000      0xd6e E:/SmashProjects/EveryoneHasWitchTime/code-mod-framework/lib/libnx_min/nx/lib\libnx_min.a(fatal.o)
 .debug_abbrev  0x0000000000000000      0x393 E:/SmashProjects/EveryoneHasWitchTime/code-mod-framework/lib/libnx_min/nx/lib\libnx_min.a(fatal.o)
 .debug_loc     0x0000000000000000      0x895 E:/SmashProjects/EveryoneHasWitchTime/code-mod-framework/lib/libnx_min/nx/lib\libnx_min.a(fatal.o)
 .debug_aranges
                0x0000000000000000       0x60 E:/SmashProjects/EveryoneHasWitchTime/code-mod-framework/lib/libnx_min/nx/lib\libnx_min.a(fatal.o)
 .debug_ranges  0x0000000000000000      0x240 E:/SmashProjects/EveryoneHasWitchTime/code-mod-framework/lib/libnx_min/nx/lib\libnx_min.a(fatal.o)
 .debug_line    0x0000000000000000      0x5c9 E:/SmashProjects/EveryoneHasWitchTime/code-mod-framework/lib/libnx_min/nx/lib\libnx_min.a(fatal.o)
 .debug_str     0x0000000000000000      0x763 E:/SmashProjects/EveryoneHasWitchTime/code-mod-framework/lib/libnx_min/nx/lib\libnx_min.a(fatal.o)
 .comment       0x0000000000000000       0x23 E:/SmashProjects/EveryoneHasWitchTime/code-mod-framework/lib/libnx_min/nx/lib\libnx_min.a(fatal.o)
 .text          0x0000000000000000        0x0 E:/SmashProjects/EveryoneHasWitchTime/code-mod-framework/lib/libnx_min/nx/lib\libnx_min.a(sm.o)
 .data          0x0000000000000000        0x0 E:/SmashProjects/EveryoneHasWitchTime/code-mod-framework/lib/libnx_min/nx/lib\libnx_min.a(sm.o)
 .bss           0x0000000000000000        0x0 E:/SmashProjects/EveryoneHasWitchTime/code-mod-framework/lib/libnx_min/nx/lib\libnx_min.a(sm.o)
 .debug_info    0x0000000000000000     0x34eb E:/SmashProjects/EveryoneHasWitchTime/code-mod-framework/lib/libnx_min/nx/lib\libnx_min.a(sm.o)
 .debug_abbrev  0x0000000000000000      0x4c4 E:/SmashProjects/EveryoneHasWitchTime/code-mod-framework/lib/libnx_min/nx/lib\libnx_min.a(sm.o)
 .debug_loc     0x0000000000000000     0x5a55 E:/SmashProjects/EveryoneHasWitchTime/code-mod-framework/lib/libnx_min/nx/lib\libnx_min.a(sm.o)
 .debug_aranges
                0x0000000000000000       0xe0 E:/SmashProjects/EveryoneHasWitchTime/code-mod-framework/lib/libnx_min/nx/lib\libnx_min.a(sm.o)
 .debug_ranges  0x0000000000000000     0x1160 E:/SmashProjects/EveryoneHasWitchTime/code-mod-framework/lib/libnx_min/nx/lib\libnx_min.a(sm.o)
 .debug_line    0x0000000000000000     0x175a E:/SmashProjects/EveryoneHasWitchTime/code-mod-framework/lib/libnx_min/nx/lib\libnx_min.a(sm.o)
 .debug_str     0x0000000000000000     0x150b E:/SmashProjects/EveryoneHasWitchTime/code-mod-framework/lib/libnx_min/nx/lib\libnx_min.a(sm.o)
 .comment       0x0000000000000000       0x23 E:/SmashProjects/EveryoneHasWitchTime/code-mod-framework/lib/libnx_min/nx/lib\libnx_min.a(sm.o)
 .text          0x0000000000000000        0x0 E:/SmashProjects/EveryoneHasWitchTime/code-mod-framework/lib/libnx_min/nx/lib\libnx_min.a(hid.o)
 .data          0x0000000000000000        0x0 E:/SmashProjects/EveryoneHasWitchTime/code-mod-framework/lib/libnx_min/nx/lib\libnx_min.a(hid.o)
 .bss           0x0000000000000000        0x0 E:/SmashProjects/EveryoneHasWitchTime/code-mod-framework/lib/libnx_min/nx/lib\libnx_min.a(hid.o)
 .debug_info    0x0000000000000000     0xb19f E:/SmashProjects/EveryoneHasWitchTime/code-mod-framework/lib/libnx_min/nx/lib\libnx_min.a(hid.o)
 .debug_abbrev  0x0000000000000000      0x743 E:/SmashProjects/EveryoneHasWitchTime/code-mod-framework/lib/libnx_min/nx/lib\libnx_min.a(hid.o)
 .debug_loc     0x0000000000000000    0x1192e E:/SmashProjects/EveryoneHasWitchTime/code-mod-framework/lib/libnx_min/nx/lib\libnx_min.a(hid.o)
 .debug_aranges
                0x0000000000000000      0x450 E:/SmashProjects/EveryoneHasWitchTime/code-mod-framework/lib/libnx_min/nx/lib\libnx_min.a(hid.o)
 .debug_ranges  0x0000000000000000     0x3140 E:/SmashProjects/EveryoneHasWitchTime/code-mod-framework/lib/libnx_min/nx/lib\libnx_min.a(hid.o)
 .debug_line    0x0000000000000000     0x5037 E:/SmashProjects/EveryoneHasWitchTime/code-mod-framework/lib/libnx_min/nx/lib\libnx_min.a(hid.o)
 .debug_str     0x0000000000000000     0x338c E:/SmashProjects/EveryoneHasWitchTime/code-mod-framework/lib/libnx_min/nx/lib\libnx_min.a(hid.o)
 .comment       0x0000000000000000       0x23 E:/SmashProjects/EveryoneHasWitchTime/code-mod-framework/lib/libnx_min/nx/lib\libnx_min.a(hid.o)
 .text          0x0000000000000000        0x0 E:/SmashProjects/EveryoneHasWitchTime/code-mod-framework/lib/libnx_min/nx/lib\libnx_min.a(time.o)
 .data          0x0000000000000000        0x0 E:/SmashProjects/EveryoneHasWitchTime/code-mod-framework/lib/libnx_min/nx/lib\libnx_min.a(time.o)
 .bss           0x0000000000000000        0x0 E:/SmashProjects/EveryoneHasWitchTime/code-mod-framework/lib/libnx_min/nx/lib\libnx_min.a(time.o)
 .debug_info    0x0000000000000000     0x2f93 E:/SmashProjects/EveryoneHasWitchTime/code-mod-framework/lib/libnx_min/nx/lib\libnx_min.a(time.o)
 .debug_abbrev  0x0000000000000000      0x544 E:/SmashProjects/EveryoneHasWitchTime/code-mod-framework/lib/libnx_min/nx/lib\libnx_min.a(time.o)
 .debug_loc     0x0000000000000000     0x36b5 E:/SmashProjects/EveryoneHasWitchTime/code-mod-framework/lib/libnx_min/nx/lib\libnx_min.a(time.o)
 .debug_aranges
                0x0000000000000000       0xa0 E:/SmashProjects/EveryoneHasWitchTime/code-mod-framework/lib/libnx_min/nx/lib\libnx_min.a(time.o)
 .debug_ranges  0x0000000000000000      0xa70 E:/SmashProjects/EveryoneHasWitchTime/code-mod-framework/lib/libnx_min/nx/lib\libnx_min.a(time.o)
 .debug_line    0x0000000000000000     0x10ba E:/SmashProjects/EveryoneHasWitchTime/code-mod-framework/lib/libnx_min/nx/lib\libnx_min.a(time.o)
 .debug_str     0x0000000000000000     0x151b E:/SmashProjects/EveryoneHasWitchTime/code-mod-framework/lib/libnx_min/nx/lib\libnx_min.a(time.o)
 .comment       0x0000000000000000       0x23 E:/SmashProjects/EveryoneHasWitchTime/code-mod-framework/lib/libnx_min/nx/lib\libnx_min.a(time.o)
 .text          0x0000000000000000        0x0 E:/SmashProjects/EveryoneHasWitchTime/code-mod-framework/lib/libnx_min/nx/lib\libnx_min.a(applet.o)
 .data          0x0000000000000000        0x0 E:/SmashProjects/EveryoneHasWitchTime/code-mod-framework/lib/libnx_min/nx/lib\libnx_min.a(applet.o)
 .bss           0x0000000000000000        0x0 E:/SmashProjects/EveryoneHasWitchTime/code-mod-framework/lib/libnx_min/nx/lib\libnx_min.a(applet.o)
 .data.__nx_applet_type
                0x0000000000000000        0x4 E:/SmashProjects/EveryoneHasWitchTime/code-mod-framework/lib/libnx_min/nx/lib\libnx_min.a(applet.o)
 .debug_info    0x0000000000000000    0x1572b E:/SmashProjects/EveryoneHasWitchTime/code-mod-framework/lib/libnx_min/nx/lib\libnx_min.a(applet.o)
 .debug_abbrev  0x0000000000000000      0x76e E:/SmashProjects/EveryoneHasWitchTime/code-mod-framework/lib/libnx_min/nx/lib\libnx_min.a(applet.o)
 .debug_loc     0x0000000000000000    0x20f04 E:/SmashProjects/EveryoneHasWitchTime/code-mod-framework/lib/libnx_min/nx/lib\libnx_min.a(applet.o)
 .debug_aranges
                0x0000000000000000      0x730 E:/SmashProjects/EveryoneHasWitchTime/code-mod-framework/lib/libnx_min/nx/lib\libnx_min.a(applet.o)
 .debug_ranges  0x0000000000000000     0x8b40 E:/SmashProjects/EveryoneHasWitchTime/code-mod-framework/lib/libnx_min/nx/lib\libnx_min.a(applet.o)
 .debug_line    0x0000000000000000     0xadb0 E:/SmashProjects/EveryoneHasWitchTime/code-mod-framework/lib/libnx_min/nx/lib\libnx_min.a(applet.o)
 .debug_str     0x0000000000000000     0x30c0 E:/SmashProjects/EveryoneHasWitchTime/code-mod-framework/lib/libnx_min/nx/lib\libnx_min.a(applet.o)
 .comment       0x0000000000000000       0x23 E:/SmashProjects/EveryoneHasWitchTime/code-mod-framework/lib/libnx_min/nx/lib\libnx_min.a(applet.o)
 .text          0x0000000000000000        0x0 E:/SmashProjects/EveryoneHasWitchTime/code-mod-framework/lib/libnx_min/nx/lib\libnx_min.a(newlib.o)
 .data          0x0000000000000000        0x0 E:/SmashProjects/EveryoneHasWitchTime/code-mod-framework/lib/libnx_min/nx/lib\libnx_min.a(newlib.o)
 .bss           0x0000000000000000        0x0 E:/SmashProjects/EveryoneHasWitchTime/code-mod-framework/lib/libnx_min/nx/lib\libnx_min.a(newlib.o)
 .debug_info    0x0000000000000000     0x2bc2 E:/SmashProjects/EveryoneHasWitchTime/code-mod-framework/lib/libnx_min/nx/lib\libnx_min.a(newlib.o)
 .debug_abbrev  0x0000000000000000      0x571 E:/SmashProjects/EveryoneHasWitchTime/code-mod-framework/lib/libnx_min/nx/lib\libnx_min.a(newlib.o)
 .debug_loc     0x0000000000000000     0x192e E:/SmashProjects/EveryoneHasWitchTime/code-mod-framework/lib/libnx_min/nx/lib\libnx_min.a(newlib.o)
 .debug_aranges
                0x0000000000000000      0x1f0 E:/SmashProjects/EveryoneHasWitchTime/code-mod-framework/lib/libnx_min/nx/lib\libnx_min.a(newlib.o)
 .debug_ranges  0x0000000000000000      0x4e0 E:/SmashProjects/EveryoneHasWitchTime/code-mod-framework/lib/libnx_min/nx/lib\libnx_min.a(newlib.o)
 .debug_line    0x0000000000000000     0x10e9 E:/SmashProjects/EveryoneHasWitchTime/code-mod-framework/lib/libnx_min/nx/lib\libnx_min.a(newlib.o)
 .debug_str     0x0000000000000000     0x18ae E:/SmashProjects/EveryoneHasWitchTime/code-mod-framework/lib/libnx_min/nx/lib\libnx_min.a(newlib.o)
 .comment       0x0000000000000000       0x23 E:/SmashProjects/EveryoneHasWitchTime/code-mod-framework/lib/libnx_min/nx/lib\libnx_min.a(newlib.o)
 .text          0x0000000000000000        0x0 E:/SmashProjects/EveryoneHasWitchTime/code-mod-framework/lib/libnx_min/nx/lib\libnx_min.a(thread.o)
 .data          0x0000000000000000        0x0 E:/SmashProjects/EveryoneHasWitchTime/code-mod-framework/lib/libnx_min/nx/lib\libnx_min.a(thread.o)
 .bss           0x0000000000000000        0x0 E:/SmashProjects/EveryoneHasWitchTime/code-mod-framework/lib/libnx_min/nx/lib\libnx_min.a(thread.o)
 .debug_info    0x0000000000000000     0x1a68 E:/SmashProjects/EveryoneHasWitchTime/code-mod-framework/lib/libnx_min/nx/lib\libnx_min.a(thread.o)
 .debug_abbrev  0x0000000000000000      0x492 E:/SmashProjects/EveryoneHasWitchTime/code-mod-framework/lib/libnx_min/nx/lib\libnx_min.a(thread.o)
 .debug_loc     0x0000000000000000      0xbd2 E:/SmashProjects/EveryoneHasWitchTime/code-mod-framework/lib/libnx_min/nx/lib\libnx_min.a(thread.o)
 .debug_aranges
                0x0000000000000000      0x100 E:/SmashProjects/EveryoneHasWitchTime/code-mod-framework/lib/libnx_min/nx/lib\libnx_min.a(thread.o)
 .debug_ranges  0x0000000000000000      0x320 E:/SmashProjects/EveryoneHasWitchTime/code-mod-framework/lib/libnx_min/nx/lib\libnx_min.a(thread.o)
 .debug_line    0x0000000000000000      0xa2c E:/SmashProjects/EveryoneHasWitchTime/code-mod-framework/lib/libnx_min/nx/lib\libnx_min.a(thread.o)
 .debug_str     0x0000000000000000      0xfee E:/SmashProjects/EveryoneHasWitchTime/code-mod-framework/lib/libnx_min/nx/lib\libnx_min.a(thread.o)
 .comment       0x0000000000000000       0x23 E:/SmashProjects/EveryoneHasWitchTime/code-mod-framework/lib/libnx_min/nx/lib\libnx_min.a(thread.o)
 .text          0x0000000000000000        0x0 E:/SmashProjects/EveryoneHasWitchTime/code-mod-framework/lib/libnx_min/nx/lib\libnx_min.a(condvar.o)
 .data          0x0000000000000000        0x0 E:/SmashProjects/EveryoneHasWitchTime/code-mod-framework/lib/libnx_min/nx/lib\libnx_min.a(condvar.o)
 .bss           0x0000000000000000        0x0 E:/SmashProjects/EveryoneHasWitchTime/code-mod-framework/lib/libnx_min/nx/lib\libnx_min.a(condvar.o)
 .debug_info    0x0000000000000000      0x396 E:/SmashProjects/EveryoneHasWitchTime/code-mod-framework/lib/libnx_min/nx/lib\libnx_min.a(condvar.o)
 .debug_abbrev  0x0000000000000000      0x1aa E:/SmashProjects/EveryoneHasWitchTime/code-mod-framework/lib/libnx_min/nx/lib\libnx_min.a(condvar.o)
 .debug_loc     0x0000000000000000      0x1c1 E:/SmashProjects/EveryoneHasWitchTime/code-mod-framework/lib/libnx_min/nx/lib\libnx_min.a(condvar.o)
 .debug_aranges
                0x0000000000000000       0x30 E:/SmashProjects/EveryoneHasWitchTime/code-mod-framework/lib/libnx_min/nx/lib\libnx_min.a(condvar.o)
 .debug_ranges  0x0000000000000000       0x60 E:/SmashProjects/EveryoneHasWitchTime/code-mod-framework/lib/libnx_min/nx/lib\libnx_min.a(condvar.o)
 .debug_line    0x0000000000000000      0x398 E:/SmashProjects/EveryoneHasWitchTime/code-mod-framework/lib/libnx_min/nx/lib\libnx_min.a(condvar.o)
 .debug_str     0x0000000000000000      0x350 E:/SmashProjects/EveryoneHasWitchTime/code-mod-framework/lib/libnx_min/nx/lib\libnx_min.a(condvar.o)
 .comment       0x0000000000000000       0x23 E:/SmashProjects/EveryoneHasWitchTime/code-mod-framework/lib/libnx_min/nx/lib\libnx_min.a(condvar.o)
 .text          0x0000000000000000        0x0 E:/SmashProjects/EveryoneHasWitchTime/code-mod-framework/lib/libnx_min/nx/lib\libnx_min.a(event.o)
 .data          0x0000000000000000        0x0 E:/SmashProjects/EveryoneHasWitchTime/code-mod-framework/lib/libnx_min/nx/lib\libnx_min.a(event.o)
 .bss           0x0000000000000000        0x0 E:/SmashProjects/EveryoneHasWitchTime/code-mod-framework/lib/libnx_min/nx/lib\libnx_min.a(event.o)
 .debug_info    0x0000000000000000      0x702 E:/SmashProjects/EveryoneHasWitchTime/code-mod-framework/lib/libnx_min/nx/lib\libnx_min.a(event.o)
 .debug_abbrev  0x0000000000000000      0x28b E:/SmashProjects/EveryoneHasWitchTime/code-mod-framework/lib/libnx_min/nx/lib\libnx_min.a(event.o)
 .debug_loc     0x0000000000000000      0x2e3 E:/SmashProjects/EveryoneHasWitchTime/code-mod-framework/lib/libnx_min/nx/lib\libnx_min.a(event.o)
 .debug_aranges
                0x0000000000000000       0x80 E:/SmashProjects/EveryoneHasWitchTime/code-mod-framework/lib/libnx_min/nx/lib\libnx_min.a(event.o)
 .debug_ranges  0x0000000000000000       0xe0 E:/SmashProjects/EveryoneHasWitchTime/code-mod-framework/lib/libnx_min/nx/lib\libnx_min.a(event.o)
 .debug_line    0x0000000000000000      0x3a9 E:/SmashProjects/EveryoneHasWitchTime/code-mod-framework/lib/libnx_min/nx/lib\libnx_min.a(event.o)
 .debug_str     0x0000000000000000      0x950 E:/SmashProjects/EveryoneHasWitchTime/code-mod-framework/lib/libnx_min/nx/lib\libnx_min.a(event.o)
 .comment       0x0000000000000000       0x23 E:/SmashProjects/EveryoneHasWitchTime/code-mod-framework/lib/libnx_min/nx/lib\libnx_min.a(event.o)
 .text          0x0000000000000000        0x0 E:/SmashProjects/EveryoneHasWitchTime/code-mod-framework/lib/libnx_min/nx/lib\libnx_min.a(tmem.o)
 .data          0x0000000000000000        0x0 E:/SmashProjects/EveryoneHasWitchTime/code-mod-framework/lib/libnx_min/nx/lib\libnx_min.a(tmem.o)
 .bss           0x0000000000000000        0x0 E:/SmashProjects/EveryoneHasWitchTime/code-mod-framework/lib/libnx_min/nx/lib\libnx_min.a(tmem.o)
 .debug_info    0x0000000000000000     0x100a E:/SmashProjects/EveryoneHasWitchTime/code-mod-framework/lib/libnx_min/nx/lib\libnx_min.a(tmem.o)
 .debug_abbrev  0x0000000000000000      0x3a2 E:/SmashProjects/EveryoneHasWitchTime/code-mod-framework/lib/libnx_min/nx/lib\libnx_min.a(tmem.o)
 .debug_loc     0x0000000000000000      0x6e2 E:/SmashProjects/EveryoneHasWitchTime/code-mod-framework/lib/libnx_min/nx/lib\libnx_min.a(tmem.o)
 .debug_aranges
                0x0000000000000000       0x80 E:/SmashProjects/EveryoneHasWitchTime/code-mod-framework/lib/libnx_min/nx/lib\libnx_min.a(tmem.o)
 .debug_ranges  0x0000000000000000       0xf0 E:/SmashProjects/EveryoneHasWitchTime/code-mod-framework/lib/libnx_min/nx/lib\libnx_min.a(tmem.o)
 .debug_line    0x0000000000000000      0x507 E:/SmashProjects/EveryoneHasWitchTime/code-mod-framework/lib/libnx_min/nx/lib\libnx_min.a(tmem.o)
 .debug_str     0x0000000000000000      0xd4f E:/SmashProjects/EveryoneHasWitchTime/code-mod-framework/lib/libnx_min/nx/lib\libnx_min.a(tmem.o)
 .comment       0x0000000000000000       0x23 E:/SmashProjects/EveryoneHasWitchTime/code-mod-framework/lib/libnx_min/nx/lib\libnx_min.a(tmem.o)
 .text          0x0000000000000000        0x0 E:/SmashProjects/EveryoneHasWitchTime/code-mod-framework/lib/libnx_min/nx/lib\libnx_min.a(rwlock.o)
 .data          0x0000000000000000        0x0 E:/SmashProjects/EveryoneHasWitchTime/code-mod-framework/lib/libnx_min/nx/lib\libnx_min.a(rwlock.o)
 .bss           0x0000000000000000        0x0 E:/SmashProjects/EveryoneHasWitchTime/code-mod-framework/lib/libnx_min/nx/lib\libnx_min.a(rwlock.o)
 .debug_info    0x0000000000000000      0x659 E:/SmashProjects/EveryoneHasWitchTime/code-mod-framework/lib/libnx_min/nx/lib\libnx_min.a(rwlock.o)
 .debug_abbrev  0x0000000000000000      0x1cc E:/SmashProjects/EveryoneHasWitchTime/code-mod-framework/lib/libnx_min/nx/lib\libnx_min.a(rwlock.o)
 .debug_loc     0x0000000000000000      0x4ab E:/SmashProjects/EveryoneHasWitchTime/code-mod-framework/lib/libnx_min/nx/lib\libnx_min.a(rwlock.o)
 .debug_aranges
                0x0000000000000000       0x70 E:/SmashProjects/EveryoneHasWitchTime/code-mod-framework/lib/libnx_min/nx/lib\libnx_min.a(rwlock.o)
 .debug_ranges  0x0000000000000000      0x130 E:/SmashProjects/EveryoneHasWitchTime/code-mod-framework/lib/libnx_min/nx/lib\libnx_min.a(rwlock.o)
 .debug_line    0x0000000000000000      0x3eb E:/SmashProjects/EveryoneHasWitchTime/code-mod-framework/lib/libnx_min/nx/lib\libnx_min.a(rwlock.o)
 .debug_str     0x0000000000000000      0x346 E:/SmashProjects/EveryoneHasWitchTime/code-mod-framework/lib/libnx_min/nx/lib\libnx_min.a(rwlock.o)
 .comment       0x0000000000000000       0x23 E:/SmashProjects/EveryoneHasWitchTime/code-mod-framework/lib/libnx_min/nx/lib\libnx_min.a(rwlock.o)
 .text          0x0000000000000000        0x0 E:/SmashProjects/EveryoneHasWitchTime/code-mod-framework/lib/libnx_min/nx/lib\libnx_min.a(wait.o)
 .data          0x0000000000000000        0x0 E:/SmashProjects/EveryoneHasWitchTime/code-mod-framework/lib/libnx_min/nx/lib\libnx_min.a(wait.o)
 .bss           0x0000000000000000        0x0 E:/SmashProjects/EveryoneHasWitchTime/code-mod-framework/lib/libnx_min/nx/lib\libnx_min.a(wait.o)
 .debug_info    0x0000000000000000      0xe46 E:/SmashProjects/EveryoneHasWitchTime/code-mod-framework/lib/libnx_min/nx/lib\libnx_min.a(wait.o)
 .debug_abbrev  0x0000000000000000      0x35d E:/SmashProjects/EveryoneHasWitchTime/code-mod-framework/lib/libnx_min/nx/lib\libnx_min.a(wait.o)
 .debug_loc     0x0000000000000000      0xeb6 E:/SmashProjects/EveryoneHasWitchTime/code-mod-framework/lib/libnx_min/nx/lib\libnx_min.a(wait.o)
 .debug_aranges
                0x0000000000000000       0x60 E:/SmashProjects/EveryoneHasWitchTime/code-mod-framework/lib/libnx_min/nx/lib\libnx_min.a(wait.o)
 .debug_ranges  0x0000000000000000      0x290 E:/SmashProjects/EveryoneHasWitchTime/code-mod-framework/lib/libnx_min/nx/lib\libnx_min.a(wait.o)
 .debug_line    0x0000000000000000      0x7bb E:/SmashProjects/EveryoneHasWitchTime/code-mod-framework/lib/libnx_min/nx/lib\libnx_min.a(wait.o)
 .debug_str     0x0000000000000000      0xa07 E:/SmashProjects/EveryoneHasWitchTime/code-mod-framework/lib/libnx_min/nx/lib\libnx_min.a(wait.o)
 .comment       0x0000000000000000       0x23 E:/SmashProjects/EveryoneHasWitchTime/code-mod-framework/lib/libnx_min/nx/lib\libnx_min.a(wait.o)
 .text          0x0000000000000000        0x0 E:/SmashProjects/EveryoneHasWitchTime/code-mod-framework/lib/libnx_min/nx/lib\libnx_min.a(shmem.o)
 .data          0x0000000000000000        0x0 E:/SmashProjects/EveryoneHasWitchTime/code-mod-framework/lib/libnx_min/nx/lib\libnx_min.a(shmem.o)
 .bss           0x0000000000000000        0x0 E:/SmashProjects/EveryoneHasWitchTime/code-mod-framework/lib/libnx_min/nx/lib\libnx_min.a(shmem.o)
 .debug_info    0x0000000000000000      0xe91 E:/SmashProjects/EveryoneHasWitchTime/code-mod-framework/lib/libnx_min/nx/lib\libnx_min.a(shmem.o)
 .debug_abbrev  0x0000000000000000      0x377 E:/SmashProjects/EveryoneHasWitchTime/code-mod-framework/lib/libnx_min/nx/lib\libnx_min.a(shmem.o)
 .debug_loc     0x0000000000000000      0x442 E:/SmashProjects/EveryoneHasWitchTime/code-mod-framework/lib/libnx_min/nx/lib\libnx_min.a(shmem.o)
 .debug_aranges
                0x0000000000000000       0x70 E:/SmashProjects/EveryoneHasWitchTime/code-mod-framework/lib/libnx_min/nx/lib\libnx_min.a(shmem.o)
 .debug_ranges  0x0000000000000000       0xe0 E:/SmashProjects/EveryoneHasWitchTime/code-mod-framework/lib/libnx_min/nx/lib\libnx_min.a(shmem.o)
 .debug_line    0x0000000000000000      0x401 E:/SmashProjects/EveryoneHasWitchTime/code-mod-framework/lib/libnx_min/nx/lib\libnx_min.a(shmem.o)
 .debug_str     0x0000000000000000      0xc9a E:/SmashProjects/EveryoneHasWitchTime/code-mod-framework/lib/libnx_min/nx/lib\libnx_min.a(shmem.o)
 .comment       0x0000000000000000       0x23 E:/SmashProjects/EveryoneHasWitchTime/code-mod-framework/lib/libnx_min/nx/lib\libnx_min.a(shmem.o)
 .text          0x0000000000000000        0x0 E:/SmashProjects/EveryoneHasWitchTime/code-mod-framework/lib/libnx_min/nx/lib\libnx_min.a(detect.o)
 .data          0x0000000000000000        0x0 E:/SmashProjects/EveryoneHasWitchTime/code-mod-framework/lib/libnx_min/nx/lib\libnx_min.a(detect.o)
 .bss           0x0000000000000000        0x0 E:/SmashProjects/EveryoneHasWitchTime/code-mod-framework/lib/libnx_min/nx/lib\libnx_min.a(detect.o)
 .debug_info    0x0000000000000000     0x103a E:/SmashProjects/EveryoneHasWitchTime/code-mod-framework/lib/libnx_min/nx/lib\libnx_min.a(detect.o)
 .debug_abbrev  0x0000000000000000      0x31e E:/SmashProjects/EveryoneHasWitchTime/code-mod-framework/lib/libnx_min/nx/lib\libnx_min.a(detect.o)
 .debug_loc     0x0000000000000000       0xb3 E:/SmashProjects/EveryoneHasWitchTime/code-mod-framework/lib/libnx_min/nx/lib\libnx_min.a(detect.o)
 .debug_aranges
                0x0000000000000000       0x60 E:/SmashProjects/EveryoneHasWitchTime/code-mod-framework/lib/libnx_min/nx/lib\libnx_min.a(detect.o)
 .debug_ranges  0x0000000000000000      0x130 E:/SmashProjects/EveryoneHasWitchTime/code-mod-framework/lib/libnx_min/nx/lib\libnx_min.a(detect.o)
 .debug_line    0x0000000000000000      0x48e E:/SmashProjects/EveryoneHasWitchTime/code-mod-framework/lib/libnx_min/nx/lib\libnx_min.a(detect.o)
 .debug_str     0x0000000000000000      0xea7 E:/SmashProjects/EveryoneHasWitchTime/code-mod-framework/lib/libnx_min/nx/lib\libnx_min.a(detect.o)
 .comment       0x0000000000000000       0x23 E:/SmashProjects/EveryoneHasWitchTime/code-mod-framework/lib/libnx_min/nx/lib\libnx_min.a(detect.o)
 .text          0x0000000000000000        0x0 E:/SmashProjects/EveryoneHasWitchTime/code-mod-framework/lib/libnx_min/nx/lib\libnx_min.a(apm.o)
 .data          0x0000000000000000        0x0 E:/SmashProjects/EveryoneHasWitchTime/code-mod-framework/lib/libnx_min/nx/lib\libnx_min.a(apm.o)
 .bss           0x0000000000000000        0x0 E:/SmashProjects/EveryoneHasWitchTime/code-mod-framework/lib/libnx_min/nx/lib\libnx_min.a(apm.o)
 .debug_info    0x0000000000000000     0x1b13 E:/SmashProjects/EveryoneHasWitchTime/code-mod-framework/lib/libnx_min/nx/lib\libnx_min.a(apm.o)
 .debug_abbrev  0x0000000000000000      0x442 E:/SmashProjects/EveryoneHasWitchTime/code-mod-framework/lib/libnx_min/nx/lib\libnx_min.a(apm.o)
 .debug_loc     0x0000000000000000     0x239a E:/SmashProjects/EveryoneHasWitchTime/code-mod-framework/lib/libnx_min/nx/lib\libnx_min.a(apm.o)
 .debug_aranges
                0x0000000000000000       0x80 E:/SmashProjects/EveryoneHasWitchTime/code-mod-framework/lib/libnx_min/nx/lib\libnx_min.a(apm.o)
 .debug_ranges  0x0000000000000000      0x630 E:/SmashProjects/EveryoneHasWitchTime/code-mod-framework/lib/libnx_min/nx/lib\libnx_min.a(apm.o)
 .debug_line    0x0000000000000000      0xbdc E:/SmashProjects/EveryoneHasWitchTime/code-mod-framework/lib/libnx_min/nx/lib\libnx_min.a(apm.o)
 .debug_str     0x0000000000000000      0xa22 E:/SmashProjects/EveryoneHasWitchTime/code-mod-framework/lib/libnx_min/nx/lib\libnx_min.a(apm.o)
 .comment       0x0000000000000000       0x23 E:/SmashProjects/EveryoneHasWitchTime/code-mod-framework/lib/libnx_min/nx/lib\libnx_min.a(apm.o)
 .text          0x0000000000000000        0x0 e:/appsprograms/devkitpro/devkita64/bin/../lib/gcc/aarch64-none-elf/8.3.0/../../../../aarch64-none-elf/lib/pic\libg.a(lib_a-bsearch.o)
 .data          0x0000000000000000        0x0 e:/appsprograms/devkitpro/devkita64/bin/../lib/gcc/aarch64-none-elf/8.3.0/../../../../aarch64-none-elf/lib/pic\libg.a(lib_a-bsearch.o)
 .bss           0x0000000000000000        0x0 e:/appsprograms/devkitpro/devkita64/bin/../lib/gcc/aarch64-none-elf/8.3.0/../../../../aarch64-none-elf/lib/pic\libg.a(lib_a-bsearch.o)
 .comment       0x0000000000000000       0x23 e:/appsprograms/devkitpro/devkita64/bin/../lib/gcc/aarch64-none-elf/8.3.0/../../../../aarch64-none-elf/lib/pic\libg.a(lib_a-bsearch.o)
 .text          0x0000000000000000        0x0 e:/appsprograms/devkitpro/devkita64/bin/../lib/gcc/aarch64-none-elf/8.3.0/../../../../aarch64-none-elf/lib/pic\libg.a(lib_a-ctype_.o)
 .data          0x0000000000000000        0x0 e:/appsprograms/devkitpro/devkita64/bin/../lib/gcc/aarch64-none-elf/8.3.0/../../../../aarch64-none-elf/lib/pic\libg.a(lib_a-ctype_.o)
 .bss           0x0000000000000000        0x0 e:/appsprograms/devkitpro/devkita64/bin/../lib/gcc/aarch64-none-elf/8.3.0/../../../../aarch64-none-elf/lib/pic\libg.a(lib_a-ctype_.o)
 .comment       0x0000000000000000       0x23 e:/appsprograms/devkitpro/devkita64/bin/../lib/gcc/aarch64-none-elf/8.3.0/../../../../aarch64-none-elf/lib/pic\libg.a(lib_a-ctype_.o)
 .text          0x0000000000000000        0x0 e:/appsprograms/devkitpro/devkita64/bin/../lib/gcc/aarch64-none-elf/8.3.0/../../../../aarch64-none-elf/lib/pic\libg.a(lib_a-errno.o)
 .data          0x0000000000000000        0x0 e:/appsprograms/devkitpro/devkita64/bin/../lib/gcc/aarch64-none-elf/8.3.0/../../../../aarch64-none-elf/lib/pic\libg.a(lib_a-errno.o)
 .bss           0x0000000000000000        0x0 e:/appsprograms/devkitpro/devkita64/bin/../lib/gcc/aarch64-none-elf/8.3.0/../../../../aarch64-none-elf/lib/pic\libg.a(lib_a-errno.o)
 .comment       0x0000000000000000       0x23 e:/appsprograms/devkitpro/devkita64/bin/../lib/gcc/aarch64-none-elf/8.3.0/../../../../aarch64-none-elf/lib/pic\libg.a(lib_a-errno.o)
 .text          0x0000000000000000        0x0 e:/appsprograms/devkitpro/devkita64/bin/../lib/gcc/aarch64-none-elf/8.3.0/../../../../aarch64-none-elf/lib/pic\libg.a(lib_a-exit.o)
 .data          0x0000000000000000        0x0 e:/appsprograms/devkitpro/devkita64/bin/../lib/gcc/aarch64-none-elf/8.3.0/../../../../aarch64-none-elf/lib/pic\libg.a(lib_a-exit.o)
 .bss           0x0000000000000000        0x0 e:/appsprograms/devkitpro/devkita64/bin/../lib/gcc/aarch64-none-elf/8.3.0/../../../../aarch64-none-elf/lib/pic\libg.a(lib_a-exit.o)
 .comment       0x0000000000000000       0x23 e:/appsprograms/devkitpro/devkita64/bin/../lib/gcc/aarch64-none-elf/8.3.0/../../../../aarch64-none-elf/lib/pic\libg.a(lib_a-exit.o)
 .text          0x0000000000000000        0x0 e:/appsprograms/devkitpro/devkita64/bin/../lib/gcc/aarch64-none-elf/8.3.0/../../../../aarch64-none-elf/lib/pic\libg.a(lib_a-fini.o)
 .data          0x0000000000000000        0x0 e:/appsprograms/devkitpro/devkita64/bin/../lib/gcc/aarch64-none-elf/8.3.0/../../../../aarch64-none-elf/lib/pic\libg.a(lib_a-fini.o)
 .bss           0x0000000000000000        0x0 e:/appsprograms/devkitpro/devkita64/bin/../lib/gcc/aarch64-none-elf/8.3.0/../../../../aarch64-none-elf/lib/pic\libg.a(lib_a-fini.o)
 .comment       0x0000000000000000       0x23 e:/appsprograms/devkitpro/devkita64/bin/../lib/gcc/aarch64-none-elf/8.3.0/../../../../aarch64-none-elf/lib/pic\libg.a(lib_a-fini.o)
 .text          0x0000000000000000        0x0 e:/appsprograms/devkitpro/devkita64/bin/../lib/gcc/aarch64-none-elf/8.3.0/../../../../aarch64-none-elf/lib/pic\libg.a(lib_a-impure.o)
 .data          0x0000000000000000        0x0 e:/appsprograms/devkitpro/devkita64/bin/../lib/gcc/aarch64-none-elf/8.3.0/../../../../aarch64-none-elf/lib/pic\libg.a(lib_a-impure.o)
 .bss           0x0000000000000000        0x0 e:/appsprograms/devkitpro/devkita64/bin/../lib/gcc/aarch64-none-elf/8.3.0/../../../../aarch64-none-elf/lib/pic\libg.a(lib_a-impure.o)
 .comment       0x0000000000000000       0x23 e:/appsprograms/devkitpro/devkita64/bin/../lib/gcc/aarch64-none-elf/8.3.0/../../../../aarch64-none-elf/lib/pic\libg.a(lib_a-impure.o)
 .text          0x0000000000000000        0x0 e:/appsprograms/devkitpro/devkita64/bin/../lib/gcc/aarch64-none-elf/8.3.0/../../../../aarch64-none-elf/lib/pic\libg.a(lib_a-init.o)
 .data          0x0000000000000000        0x0 e:/appsprograms/devkitpro/devkita64/bin/../lib/gcc/aarch64-none-elf/8.3.0/../../../../aarch64-none-elf/lib/pic\libg.a(lib_a-init.o)
 .bss           0x0000000000000000        0x0 e:/appsprograms/devkitpro/devkita64/bin/../lib/gcc/aarch64-none-elf/8.3.0/../../../../aarch64-none-elf/lib/pic\libg.a(lib_a-init.o)
 .comment       0x0000000000000000       0x23 e:/appsprograms/devkitpro/devkita64/bin/../lib/gcc/aarch64-none-elf/8.3.0/../../../../aarch64-none-elf/lib/pic\libg.a(lib_a-init.o)
 .text          0x0000000000000000        0x0 e:/appsprograms/devkitpro/devkita64/bin/../lib/gcc/aarch64-none-elf/8.3.0/../../../../aarch64-none-elf/lib/pic\libg.a(lib_a-malign.o)
 .data          0x0000000000000000        0x0 e:/appsprograms/devkitpro/devkita64/bin/../lib/gcc/aarch64-none-elf/8.3.0/../../../../aarch64-none-elf/lib/pic\libg.a(lib_a-malign.o)
 .bss           0x0000000000000000        0x0 e:/appsprograms/devkitpro/devkita64/bin/../lib/gcc/aarch64-none-elf/8.3.0/../../../../aarch64-none-elf/lib/pic\libg.a(lib_a-malign.o)
 .comment       0x0000000000000000       0x23 e:/appsprograms/devkitpro/devkita64/bin/../lib/gcc/aarch64-none-elf/8.3.0/../../../../aarch64-none-elf/lib/pic\libg.a(lib_a-malign.o)
 .text          0x0000000000000000        0x0 e:/appsprograms/devkitpro/devkita64/bin/../lib/gcc/aarch64-none-elf/8.3.0/../../../../aarch64-none-elf/lib/pic\libg.a(lib_a-malignr.o)
 .data          0x0000000000000000        0x0 e:/appsprograms/devkitpro/devkita64/bin/../lib/gcc/aarch64-none-elf/8.3.0/../../../../aarch64-none-elf/lib/pic\libg.a(lib_a-malignr.o)
 .bss           0x0000000000000000        0x0 e:/appsprograms/devkitpro/devkita64/bin/../lib/gcc/aarch64-none-elf/8.3.0/../../../../aarch64-none-elf/lib/pic\libg.a(lib_a-malignr.o)
 .comment       0x0000000000000000       0x23 e:/appsprograms/devkitpro/devkita64/bin/../lib/gcc/aarch64-none-elf/8.3.0/../../../../aarch64-none-elf/lib/pic\libg.a(lib_a-malignr.o)
 .text          0x0000000000000000        0x0 e:/appsprograms/devkitpro/devkita64/bin/../lib/gcc/aarch64-none-elf/8.3.0/../../../../aarch64-none-elf/lib/pic\libg.a(lib_a-malloc.o)
 .data          0x0000000000000000        0x0 e:/appsprograms/devkitpro/devkita64/bin/../lib/gcc/aarch64-none-elf/8.3.0/../../../../aarch64-none-elf/lib/pic\libg.a(lib_a-malloc.o)
 .bss           0x0000000000000000        0x0 e:/appsprograms/devkitpro/devkita64/bin/../lib/gcc/aarch64-none-elf/8.3.0/../../../../aarch64-none-elf/lib/pic\libg.a(lib_a-malloc.o)
 .comment       0x0000000000000000       0x23 e:/appsprograms/devkitpro/devkita64/bin/../lib/gcc/aarch64-none-elf/8.3.0/../../../../aarch64-none-elf/lib/pic\libg.a(lib_a-malloc.o)
 .text          0x0000000000000000        0x0 e:/appsprograms/devkitpro/devkita64/bin/../lib/gcc/aarch64-none-elf/8.3.0/../../../../aarch64-none-elf/lib/pic\libg.a(lib_a-mallocr.o)
 .data          0x0000000000000000        0x0 e:/appsprograms/devkitpro/devkita64/bin/../lib/gcc/aarch64-none-elf/8.3.0/../../../../aarch64-none-elf/lib/pic\libg.a(lib_a-mallocr.o)
 .bss           0x0000000000000000        0x0 e:/appsprograms/devkitpro/devkita64/bin/../lib/gcc/aarch64-none-elf/8.3.0/../../../../aarch64-none-elf/lib/pic\libg.a(lib_a-mallocr.o)
 .comment       0x0000000000000000       0x23 e:/appsprograms/devkitpro/devkita64/bin/../lib/gcc/aarch64-none-elf/8.3.0/../../../../aarch64-none-elf/lib/pic\libg.a(lib_a-mallocr.o)
 .data          0x0000000000000000        0x0 e:/appsprograms/devkitpro/devkita64/bin/../lib/gcc/aarch64-none-elf/8.3.0/../../../../aarch64-none-elf/lib/pic\libg.a(lib_a-memcpy.o)
 .bss           0x0000000000000000        0x0 e:/appsprograms/devkitpro/devkita64/bin/../lib/gcc/aarch64-none-elf/8.3.0/../../../../aarch64-none-elf/lib/pic\libg.a(lib_a-memcpy.o)
 .data          0x0000000000000000        0x0 e:/appsprograms/devkitpro/devkita64/bin/../lib/gcc/aarch64-none-elf/8.3.0/../../../../aarch64-none-elf/lib/pic\libg.a(lib_a-memset.o)
 .bss           0x0000000000000000        0x0 e:/appsprograms/devkitpro/devkita64/bin/../lib/gcc/aarch64-none-elf/8.3.0/../../../../aarch64-none-elf/lib/pic\libg.a(lib_a-memset.o)
 .text          0x0000000000000000        0x0 e:/appsprograms/devkitpro/devkita64/bin/../lib/gcc/aarch64-none-elf/8.3.0/../../../../aarch64-none-elf/lib/pic\libg.a(lib_a-mlock.o)
 .data          0x0000000000000000        0x0 e:/appsprograms/devkitpro/devkita64/bin/../lib/gcc/aarch64-none-elf/8.3.0/../../../../aarch64-none-elf/lib/pic\libg.a(lib_a-mlock.o)
 .bss           0x0000000000000000        0x0 e:/appsprograms/devkitpro/devkita64/bin/../lib/gcc/aarch64-none-elf/8.3.0/../../../../aarch64-none-elf/lib/pic\libg.a(lib_a-mlock.o)
 .comment       0x0000000000000000       0x23 e:/appsprograms/devkitpro/devkita64/bin/../lib/gcc/aarch64-none-elf/8.3.0/../../../../aarch64-none-elf/lib/pic\libg.a(lib_a-mlock.o)
 .text          0x0000000000000000        0x0 e:/appsprograms/devkitpro/devkita64/bin/../lib/gcc/aarch64-none-elf/8.3.0/../../../../aarch64-none-elf/lib/pic\libg.a(lib_a-setenv.o)
 .data          0x0000000000000000        0x0 e:/appsprograms/devkitpro/devkita64/bin/../lib/gcc/aarch64-none-elf/8.3.0/../../../../aarch64-none-elf/lib/pic\libg.a(lib_a-setenv.o)
 .bss           0x0000000000000000        0x0 e:/appsprograms/devkitpro/devkita64/bin/../lib/gcc/aarch64-none-elf/8.3.0/../../../../aarch64-none-elf/lib/pic\libg.a(lib_a-setenv.o)
 .comment       0x0000000000000000       0x23 e:/appsprograms/devkitpro/devkita64/bin/../lib/gcc/aarch64-none-elf/8.3.0/../../../../aarch64-none-elf/lib/pic\libg.a(lib_a-setenv.o)
 .text          0x0000000000000000        0x0 e:/appsprograms/devkitpro/devkita64/bin/../lib/gcc/aarch64-none-elf/8.3.0/../../../../aarch64-none-elf/lib/pic\libg.a(lib_a-setenv_r.o)
 .data          0x0000000000000000        0x0 e:/appsprograms/devkitpro/devkita64/bin/../lib/gcc/aarch64-none-elf/8.3.0/../../../../aarch64-none-elf/lib/pic\libg.a(lib_a-setenv_r.o)
 .bss           0x0000000000000000        0x0 e:/appsprograms/devkitpro/devkita64/bin/../lib/gcc/aarch64-none-elf/8.3.0/../../../../aarch64-none-elf/lib/pic\libg.a(lib_a-setenv_r.o)
 .comment       0x0000000000000000       0x23 e:/appsprograms/devkitpro/devkita64/bin/../lib/gcc/aarch64-none-elf/8.3.0/../../../../aarch64-none-elf/lib/pic\libg.a(lib_a-setenv_r.o)
 .data          0x0000000000000000        0x0 e:/appsprograms/devkitpro/devkita64/bin/../lib/gcc/aarch64-none-elf/8.3.0/../../../../aarch64-none-elf/lib/pic\libg.a(lib_a-strchr.o)
 .bss           0x0000000000000000        0x0 e:/appsprograms/devkitpro/devkita64/bin/../lib/gcc/aarch64-none-elf/8.3.0/../../../../aarch64-none-elf/lib/pic\libg.a(lib_a-strchr.o)
 .data          0x0000000000000000        0x0 e:/appsprograms/devkitpro/devkita64/bin/../lib/gcc/aarch64-none-elf/8.3.0/../../../../aarch64-none-elf/lib/pic\libg.a(lib_a-strcmp.o)
 .bss           0x0000000000000000        0x0 e:/appsprograms/devkitpro/devkita64/bin/../lib/gcc/aarch64-none-elf/8.3.0/../../../../aarch64-none-elf/lib/pic\libg.a(lib_a-strcmp.o)
 .data          0x0000000000000000        0x0 e:/appsprograms/devkitpro/devkita64/bin/../lib/gcc/aarch64-none-elf/8.3.0/../../../../aarch64-none-elf/lib/pic\libg.a(lib_a-strcpy.o)
 .bss           0x0000000000000000        0x0 e:/appsprograms/devkitpro/devkita64/bin/../lib/gcc/aarch64-none-elf/8.3.0/../../../../aarch64-none-elf/lib/pic\libg.a(lib_a-strcpy.o)
 .data          0x0000000000000000        0x0 e:/appsprograms/devkitpro/devkita64/bin/../lib/gcc/aarch64-none-elf/8.3.0/../../../../aarch64-none-elf/lib/pic\libg.a(lib_a-strlen.o)
 .bss           0x0000000000000000        0x0 e:/appsprograms/devkitpro/devkita64/bin/../lib/gcc/aarch64-none-elf/8.3.0/../../../../aarch64-none-elf/lib/pic\libg.a(lib_a-strlen.o)
 .text          0x0000000000000000        0x0 e:/appsprograms/devkitpro/devkita64/bin/../lib/gcc/aarch64-none-elf/8.3.0/../../../../aarch64-none-elf/lib/pic\libg.a(lib_a-strncat.o)
 .data          0x0000000000000000        0x0 e:/appsprograms/devkitpro/devkita64/bin/../lib/gcc/aarch64-none-elf/8.3.0/../../../../aarch64-none-elf/lib/pic\libg.a(lib_a-strncat.o)
 .bss           0x0000000000000000        0x0 e:/appsprograms/devkitpro/devkita64/bin/../lib/gcc/aarch64-none-elf/8.3.0/../../../../aarch64-none-elf/lib/pic\libg.a(lib_a-strncat.o)
 .comment       0x0000000000000000       0x23 e:/appsprograms/devkitpro/devkita64/bin/../lib/gcc/aarch64-none-elf/8.3.0/../../../../aarch64-none-elf/lib/pic\libg.a(lib_a-strncat.o)
 .data          0x0000000000000000        0x0 e:/appsprograms/devkitpro/devkita64/bin/../lib/gcc/aarch64-none-elf/8.3.0/../../../../aarch64-none-elf/lib/pic\libg.a(lib_a-strncmp.o)
 .bss           0x0000000000000000        0x0 e:/appsprograms/devkitpro/devkita64/bin/../lib/gcc/aarch64-none-elf/8.3.0/../../../../aarch64-none-elf/lib/pic\libg.a(lib_a-strncmp.o)
 .text          0x0000000000000000        0x0 e:/appsprograms/devkitpro/devkita64/bin/../lib/gcc/aarch64-none-elf/8.3.0/../../../../aarch64-none-elf/lib/pic\libg.a(lib_a-strncpy.o)
 .data          0x0000000000000000        0x0 e:/appsprograms/devkitpro/devkita64/bin/../lib/gcc/aarch64-none-elf/8.3.0/../../../../aarch64-none-elf/lib/pic\libg.a(lib_a-strncpy.o)
 .bss           0x0000000000000000        0x0 e:/appsprograms/devkitpro/devkita64/bin/../lib/gcc/aarch64-none-elf/8.3.0/../../../../aarch64-none-elf/lib/pic\libg.a(lib_a-strncpy.o)
 .comment       0x0000000000000000       0x23 e:/appsprograms/devkitpro/devkita64/bin/../lib/gcc/aarch64-none-elf/8.3.0/../../../../aarch64-none-elf/lib/pic\libg.a(lib_a-strncpy.o)
 .data          0x0000000000000000        0x0 e:/appsprograms/devkitpro/devkita64/bin/../lib/gcc/aarch64-none-elf/8.3.0/../../../../aarch64-none-elf/lib/pic\libg.a(lib_a-strnlen.o)
 .bss           0x0000000000000000        0x0 e:/appsprograms/devkitpro/devkita64/bin/../lib/gcc/aarch64-none-elf/8.3.0/../../../../aarch64-none-elf/lib/pic\libg.a(lib_a-strnlen.o)
 .text          0x0000000000000000        0x0 e:/appsprograms/devkitpro/devkita64/bin/../lib/gcc/aarch64-none-elf/8.3.0/../../../../aarch64-none-elf/lib/pic\libg.a(lib_a-toupper.o)
 .data          0x0000000000000000        0x0 e:/appsprograms/devkitpro/devkita64/bin/../lib/gcc/aarch64-none-elf/8.3.0/../../../../aarch64-none-elf/lib/pic\libg.a(lib_a-toupper.o)
 .bss           0x0000000000000000        0x0 e:/appsprograms/devkitpro/devkita64/bin/../lib/gcc/aarch64-none-elf/8.3.0/../../../../aarch64-none-elf/lib/pic\libg.a(lib_a-toupper.o)
 .comment       0x0000000000000000       0x23 e:/appsprograms/devkitpro/devkita64/bin/../lib/gcc/aarch64-none-elf/8.3.0/../../../../aarch64-none-elf/lib/pic\libg.a(lib_a-toupper.o)
 .text          0x0000000000000000        0x0 e:/appsprograms/devkitpro/devkita64/bin/../lib/gcc/aarch64-none-elf/8.3.0/../../../../aarch64-none-elf/lib/pic\libg.a(lib_a-vsnprintf.o)
 .data          0x0000000000000000        0x0 e:/appsprograms/devkitpro/devkita64/bin/../lib/gcc/aarch64-none-elf/8.3.0/../../../../aarch64-none-elf/lib/pic\libg.a(lib_a-vsnprintf.o)
 .bss           0x0000000000000000        0x0 e:/appsprograms/devkitpro/devkita64/bin/../lib/gcc/aarch64-none-elf/8.3.0/../../../../aarch64-none-elf/lib/pic\libg.a(lib_a-vsnprintf.o)
 .comment       0x0000000000000000       0x23 e:/appsprograms/devkitpro/devkita64/bin/../lib/gcc/aarch64-none-elf/8.3.0/../../../../aarch64-none-elf/lib/pic\libg.a(lib_a-vsnprintf.o)
 .text          0x0000000000000000        0x0 e:/appsprograms/devkitpro/devkita64/bin/../lib/gcc/aarch64-none-elf/8.3.0/../../../../aarch64-none-elf/lib/pic\libg.a(lib_a-__call_atexit.o)
 .data          0x0000000000000000        0x0 e:/appsprograms/devkitpro/devkita64/bin/../lib/gcc/aarch64-none-elf/8.3.0/../../../../aarch64-none-elf/lib/pic\libg.a(lib_a-__call_atexit.o)
 .bss           0x0000000000000000        0x0 e:/appsprograms/devkitpro/devkita64/bin/../lib/gcc/aarch64-none-elf/8.3.0/../../../../aarch64-none-elf/lib/pic\libg.a(lib_a-__call_atexit.o)
 .comment       0x0000000000000000       0x23 e:/appsprograms/devkitpro/devkita64/bin/../lib/gcc/aarch64-none-elf/8.3.0/../../../../aarch64-none-elf/lib/pic\libg.a(lib_a-__call_atexit.o)
 .text          0x0000000000000000        0x0 e:/appsprograms/devkitpro/devkita64/bin/../lib/gcc/aarch64-none-elf/8.3.0/../../../../aarch64-none-elf/lib/pic\libg.a(lib_a-environ.o)
 .data          0x0000000000000000        0x0 e:/appsprograms/devkitpro/devkita64/bin/../lib/gcc/aarch64-none-elf/8.3.0/../../../../aarch64-none-elf/lib/pic\libg.a(lib_a-environ.o)
 .bss           0x0000000000000000        0x0 e:/appsprograms/devkitpro/devkita64/bin/../lib/gcc/aarch64-none-elf/8.3.0/../../../../aarch64-none-elf/lib/pic\libg.a(lib_a-environ.o)
 .comment       0x0000000000000000       0x23 e:/appsprograms/devkitpro/devkita64/bin/../lib/gcc/aarch64-none-elf/8.3.0/../../../../aarch64-none-elf/lib/pic\libg.a(lib_a-environ.o)
 .text          0x0000000000000000        0x0 e:/appsprograms/devkitpro/devkita64/bin/../lib/gcc/aarch64-none-elf/8.3.0/../../../../aarch64-none-elf/lib/pic\libg.a(lib_a-envlock.o)
 .data          0x0000000000000000        0x0 e:/appsprograms/devkitpro/devkita64/bin/../lib/gcc/aarch64-none-elf/8.3.0/../../../../aarch64-none-elf/lib/pic\libg.a(lib_a-envlock.o)
 .bss           0x0000000000000000        0x0 e:/appsprograms/devkitpro/devkita64/bin/../lib/gcc/aarch64-none-elf/8.3.0/../../../../aarch64-none-elf/lib/pic\libg.a(lib_a-envlock.o)
 .comment       0x0000000000000000       0x23 e:/appsprograms/devkitpro/devkita64/bin/../lib/gcc/aarch64-none-elf/8.3.0/../../../../aarch64-none-elf/lib/pic\libg.a(lib_a-envlock.o)
 .text          0x0000000000000000        0x0 e:/appsprograms/devkitpro/devkita64/bin/../lib/gcc/aarch64-none-elf/8.3.0/../../../../aarch64-none-elf/lib/pic\libg.a(lib_a-freer.o)
 .data          0x0000000000000000        0x0 e:/appsprograms/devkitpro/devkita64/bin/../lib/gcc/aarch64-none-elf/8.3.0/../../../../aarch64-none-elf/lib/pic\libg.a(lib_a-freer.o)
 .bss           0x0000000000000000        0x0 e:/appsprograms/devkitpro/devkita64/bin/../lib/gcc/aarch64-none-elf/8.3.0/../../../../aarch64-none-elf/lib/pic\libg.a(lib_a-freer.o)
 .comment       0x0000000000000000       0x23 e:/appsprograms/devkitpro/devkita64/bin/../lib/gcc/aarch64-none-elf/8.3.0/../../../../aarch64-none-elf/lib/pic\libg.a(lib_a-freer.o)
 .text          0x0000000000000000        0x0 e:/appsprograms/devkitpro/devkita64/bin/../lib/gcc/aarch64-none-elf/8.3.0/../../../../aarch64-none-elf/lib/pic\libg.a(lib_a-getenv_r.o)
 .data          0x0000000000000000        0x0 e:/appsprograms/devkitpro/devkita64/bin/../lib/gcc/aarch64-none-elf/8.3.0/../../../../aarch64-none-elf/lib/pic\libg.a(lib_a-getenv_r.o)
 .bss           0x0000000000000000        0x0 e:/appsprograms/devkitpro/devkita64/bin/../lib/gcc/aarch64-none-elf/8.3.0/../../../../aarch64-none-elf/lib/pic\libg.a(lib_a-getenv_r.o)
 .comment       0x0000000000000000       0x23 e:/appsprograms/devkitpro/devkita64/bin/../lib/gcc/aarch64-none-elf/8.3.0/../../../../aarch64-none-elf/lib/pic\libg.a(lib_a-getenv_r.o)
 .text          0x0000000000000000        0x0 e:/appsprograms/devkitpro/devkita64/bin/../lib/gcc/aarch64-none-elf/8.3.0/../../../../aarch64-none-elf/lib/pic\libg.a(lib_a-reallocr.o)
 .data          0x0000000000000000        0x0 e:/appsprograms/devkitpro/devkita64/bin/../lib/gcc/aarch64-none-elf/8.3.0/../../../../aarch64-none-elf/lib/pic\libg.a(lib_a-reallocr.o)
 .bss           0x0000000000000000        0x0 e:/appsprograms/devkitpro/devkita64/bin/../lib/gcc/aarch64-none-elf/8.3.0/../../../../aarch64-none-elf/lib/pic\libg.a(lib_a-reallocr.o)
 .comment       0x0000000000000000       0x23 e:/appsprograms/devkitpro/devkita64/bin/../lib/gcc/aarch64-none-elf/8.3.0/../../../../aarch64-none-elf/lib/pic\libg.a(lib_a-reallocr.o)
 .text          0x0000000000000000        0x0 e:/appsprograms/devkitpro/devkita64/bin/../lib/gcc/aarch64-none-elf/8.3.0/../../../../aarch64-none-elf/lib/pic\libg.a(lib_a-svfprintf.o)
 .data          0x0000000000000000        0x0 e:/appsprograms/devkitpro/devkita64/bin/../lib/gcc/aarch64-none-elf/8.3.0/../../../../aarch64-none-elf/lib/pic\libg.a(lib_a-svfprintf.o)
 .bss           0x0000000000000000        0x0 e:/appsprograms/devkitpro/devkita64/bin/../lib/gcc/aarch64-none-elf/8.3.0/../../../../aarch64-none-elf/lib/pic\libg.a(lib_a-svfprintf.o)
 .comment       0x0000000000000000       0x23 e:/appsprograms/devkitpro/devkita64/bin/../lib/gcc/aarch64-none-elf/8.3.0/../../../../aarch64-none-elf/lib/pic\libg.a(lib_a-svfprintf.o)
 .text          0x0000000000000000        0x0 e:/appsprograms/devkitpro/devkita64/bin/../lib/gcc/aarch64-none-elf/8.3.0/../../../../aarch64-none-elf/lib/pic\libg.a(lib_a-wcrtomb.o)
 .data          0x0000000000000000        0x0 e:/appsprograms/devkitpro/devkita64/bin/../lib/gcc/aarch64-none-elf/8.3.0/../../../../aarch64-none-elf/lib/pic\libg.a(lib_a-wcrtomb.o)
 .bss           0x0000000000000000        0x0 e:/appsprograms/devkitpro/devkita64/bin/../lib/gcc/aarch64-none-elf/8.3.0/../../../../aarch64-none-elf/lib/pic\libg.a(lib_a-wcrtomb.o)
 .comment       0x0000000000000000       0x23 e:/appsprograms/devkitpro/devkita64/bin/../lib/gcc/aarch64-none-elf/8.3.0/../../../../aarch64-none-elf/lib/pic\libg.a(lib_a-wcrtomb.o)
 .text          0x0000000000000000        0x0 e:/appsprograms/devkitpro/devkita64/bin/../lib/gcc/aarch64-none-elf/8.3.0/../../../../aarch64-none-elf/lib/pic\libg.a(lib_a-wcsrtombs.o)
 .data          0x0000000000000000        0x0 e:/appsprograms/devkitpro/devkita64/bin/../lib/gcc/aarch64-none-elf/8.3.0/../../../../aarch64-none-elf/lib/pic\libg.a(lib_a-wcsrtombs.o)
 .bss           0x0000000000000000        0x0 e:/appsprograms/devkitpro/devkita64/bin/../lib/gcc/aarch64-none-elf/8.3.0/../../../../aarch64-none-elf/lib/pic\libg.a(lib_a-wcsrtombs.o)
 .comment       0x0000000000000000       0x23 e:/appsprograms/devkitpro/devkita64/bin/../lib/gcc/aarch64-none-elf/8.3.0/../../../../aarch64-none-elf/lib/pic\libg.a(lib_a-wcsrtombs.o)
 .text          0x0000000000000000        0x0 e:/appsprograms/devkitpro/devkita64/bin/../lib/gcc/aarch64-none-elf/8.3.0/../../../../aarch64-none-elf/lib/pic\libg.a(lib_a-dtoa.o)
 .data          0x0000000000000000        0x0 e:/appsprograms/devkitpro/devkita64/bin/../lib/gcc/aarch64-none-elf/8.3.0/../../../../aarch64-none-elf/lib/pic\libg.a(lib_a-dtoa.o)
 .bss           0x0000000000000000        0x0 e:/appsprograms/devkitpro/devkita64/bin/../lib/gcc/aarch64-none-elf/8.3.0/../../../../aarch64-none-elf/lib/pic\libg.a(lib_a-dtoa.o)
 .comment       0x0000000000000000       0x23 e:/appsprograms/devkitpro/devkita64/bin/../lib/gcc/aarch64-none-elf/8.3.0/../../../../aarch64-none-elf/lib/pic\libg.a(lib_a-dtoa.o)
 .text          0x0000000000000000        0x0 e:/appsprograms/devkitpro/devkita64/bin/../lib/gcc/aarch64-none-elf/8.3.0/../../../../aarch64-none-elf/lib/pic\libg.a(lib_a-localeconv.o)
 .data          0x0000000000000000        0x0 e:/appsprograms/devkitpro/devkita64/bin/../lib/gcc/aarch64-none-elf/8.3.0/../../../../aarch64-none-elf/lib/pic\libg.a(lib_a-localeconv.o)
 .bss           0x0000000000000000        0x0 e:/appsprograms/devkitpro/devkita64/bin/../lib/gcc/aarch64-none-elf/8.3.0/../../../../aarch64-none-elf/lib/pic\libg.a(lib_a-localeconv.o)
 .comment       0x0000000000000000       0x23 e:/appsprograms/devkitpro/devkita64/bin/../lib/gcc/aarch64-none-elf/8.3.0/../../../../aarch64-none-elf/lib/pic\libg.a(lib_a-localeconv.o)
 .text          0x0000000000000000        0x0 e:/appsprograms/devkitpro/devkita64/bin/../lib/gcc/aarch64-none-elf/8.3.0/../../../../aarch64-none-elf/lib/pic\libg.a(lib_a-locale.o)
 .data          0x0000000000000000        0x0 e:/appsprograms/devkitpro/devkita64/bin/../lib/gcc/aarch64-none-elf/8.3.0/../../../../aarch64-none-elf/lib/pic\libg.a(lib_a-locale.o)
 .bss           0x0000000000000000        0x0 e:/appsprograms/devkitpro/devkita64/bin/../lib/gcc/aarch64-none-elf/8.3.0/../../../../aarch64-none-elf/lib/pic\libg.a(lib_a-locale.o)
 .comment       0x0000000000000000       0x23 e:/appsprograms/devkitpro/devkita64/bin/../lib/gcc/aarch64-none-elf/8.3.0/../../../../aarch64-none-elf/lib/pic\libg.a(lib_a-locale.o)
 .text          0x0000000000000000        0x0 e:/appsprograms/devkitpro/devkita64/bin/../lib/gcc/aarch64-none-elf/8.3.0/../../../../aarch64-none-elf/lib/pic\libg.a(lib_a-mbtowc_r.o)
 .data          0x0000000000000000        0x0 e:/appsprograms/devkitpro/devkita64/bin/../lib/gcc/aarch64-none-elf/8.3.0/../../../../aarch64-none-elf/lib/pic\libg.a(lib_a-mbtowc_r.o)
 .bss           0x0000000000000000        0x0 e:/appsprograms/devkitpro/devkita64/bin/../lib/gcc/aarch64-none-elf/8.3.0/../../../../aarch64-none-elf/lib/pic\libg.a(lib_a-mbtowc_r.o)
 .comment       0x0000000000000000       0x23 e:/appsprograms/devkitpro/devkita64/bin/../lib/gcc/aarch64-none-elf/8.3.0/../../../../aarch64-none-elf/lib/pic\libg.a(lib_a-mbtowc_r.o)
 .data          0x0000000000000000        0x0 e:/appsprograms/devkitpro/devkita64/bin/../lib/gcc/aarch64-none-elf/8.3.0/../../../../aarch64-none-elf/lib/pic\libg.a(lib_a-memchr.o)
 .bss           0x0000000000000000        0x0 e:/appsprograms/devkitpro/devkita64/bin/../lib/gcc/aarch64-none-elf/8.3.0/../../../../aarch64-none-elf/lib/pic\libg.a(lib_a-memchr.o)
 .data          0x0000000000000000        0x0 e:/appsprograms/devkitpro/devkita64/bin/../lib/gcc/aarch64-none-elf/8.3.0/../../../../aarch64-none-elf/lib/pic\libg.a(lib_a-memmove.o)
 .bss           0x0000000000000000        0x0 e:/appsprograms/devkitpro/devkita64/bin/../lib/gcc/aarch64-none-elf/8.3.0/../../../../aarch64-none-elf/lib/pic\libg.a(lib_a-memmove.o)
 .text          0x0000000000000000        0x0 e:/appsprograms/devkitpro/devkita64/bin/../lib/gcc/aarch64-none-elf/8.3.0/../../../../aarch64-none-elf/lib/pic\libg.a(lib_a-mprec.o)
 .data          0x0000000000000000        0x0 e:/appsprograms/devkitpro/devkita64/bin/../lib/gcc/aarch64-none-elf/8.3.0/../../../../aarch64-none-elf/lib/pic\libg.a(lib_a-mprec.o)
 .bss           0x0000000000000000        0x0 e:/appsprograms/devkitpro/devkita64/bin/../lib/gcc/aarch64-none-elf/8.3.0/../../../../aarch64-none-elf/lib/pic\libg.a(lib_a-mprec.o)
 .comment       0x0000000000000000       0x23 e:/appsprograms/devkitpro/devkita64/bin/../lib/gcc/aarch64-none-elf/8.3.0/../../../../aarch64-none-elf/lib/pic\libg.a(lib_a-mprec.o)
 .text          0x0000000000000000        0x0 e:/appsprograms/devkitpro/devkita64/bin/../lib/gcc/aarch64-none-elf/8.3.0/../../../../aarch64-none-elf/lib/pic\libg.a(lib_a-s_frexp.o)
 .data          0x0000000000000000        0x0 e:/appsprograms/devkitpro/devkita64/bin/../lib/gcc/aarch64-none-elf/8.3.0/../../../../aarch64-none-elf/lib/pic\libg.a(lib_a-s_frexp.o)
 .bss           0x0000000000000000        0x0 e:/appsprograms/devkitpro/devkita64/bin/../lib/gcc/aarch64-none-elf/8.3.0/../../../../aarch64-none-elf/lib/pic\libg.a(lib_a-s_frexp.o)
 .comment       0x0000000000000000       0x23 e:/appsprograms/devkitpro/devkita64/bin/../lib/gcc/aarch64-none-elf/8.3.0/../../../../aarch64-none-elf/lib/pic\libg.a(lib_a-s_frexp.o)
 .text          0x0000000000000000        0x0 e:/appsprograms/devkitpro/devkita64/bin/../lib/gcc/aarch64-none-elf/8.3.0/../../../../aarch64-none-elf/lib/pic\libg.a(lib_a-strcasecmp.o)
 .data          0x0000000000000000        0x0 e:/appsprograms/devkitpro/devkita64/bin/../lib/gcc/aarch64-none-elf/8.3.0/../../../../aarch64-none-elf/lib/pic\libg.a(lib_a-strcasecmp.o)
 .bss           0x0000000000000000        0x0 e:/appsprograms/devkitpro/devkita64/bin/../lib/gcc/aarch64-none-elf/8.3.0/../../../../aarch64-none-elf/lib/pic\libg.a(lib_a-strcasecmp.o)
 .comment       0x0000000000000000       0x23 e:/appsprograms/devkitpro/devkita64/bin/../lib/gcc/aarch64-none-elf/8.3.0/../../../../aarch64-none-elf/lib/pic\libg.a(lib_a-strcasecmp.o)
 .text          0x0000000000000000        0x0 e:/appsprograms/devkitpro/devkita64/bin/../lib/gcc/aarch64-none-elf/8.3.0/../../../../aarch64-none-elf/lib/pic\libg.a(lib_a-strcat.o)
 .data          0x0000000000000000        0x0 e:/appsprograms/devkitpro/devkita64/bin/../lib/gcc/aarch64-none-elf/8.3.0/../../../../aarch64-none-elf/lib/pic\libg.a(lib_a-strcat.o)
 .bss           0x0000000000000000        0x0 e:/appsprograms/devkitpro/devkita64/bin/../lib/gcc/aarch64-none-elf/8.3.0/../../../../aarch64-none-elf/lib/pic\libg.a(lib_a-strcat.o)
 .comment       0x0000000000000000       0x23 e:/appsprograms/devkitpro/devkita64/bin/../lib/gcc/aarch64-none-elf/8.3.0/../../../../aarch64-none-elf/lib/pic\libg.a(lib_a-strcat.o)
 .text          0x0000000000000000        0x0 e:/appsprograms/devkitpro/devkita64/bin/../lib/gcc/aarch64-none-elf/8.3.0/../../../../aarch64-none-elf/lib/pic\libg.a(lib_a-strlcpy.o)
 .data          0x0000000000000000        0x0 e:/appsprograms/devkitpro/devkita64/bin/../lib/gcc/aarch64-none-elf/8.3.0/../../../../aarch64-none-elf/lib/pic\libg.a(lib_a-strlcpy.o)
 .bss           0x0000000000000000        0x0 e:/appsprograms/devkitpro/devkita64/bin/../lib/gcc/aarch64-none-elf/8.3.0/../../../../aarch64-none-elf/lib/pic\libg.a(lib_a-strlcpy.o)
 .comment       0x0000000000000000       0x23 e:/appsprograms/devkitpro/devkita64/bin/../lib/gcc/aarch64-none-elf/8.3.0/../../../../aarch64-none-elf/lib/pic\libg.a(lib_a-strlcpy.o)
 .text          0x0000000000000000        0x0 e:/appsprograms/devkitpro/devkita64/bin/../lib/gcc/aarch64-none-elf/8.3.0/../../../../aarch64-none-elf/lib/pic\libg.a(lib_a-strncasecmp.o)
 .data          0x0000000000000000        0x0 e:/appsprograms/devkitpro/devkita64/bin/../lib/gcc/aarch64-none-elf/8.3.0/../../../../aarch64-none-elf/lib/pic\libg.a(lib_a-strncasecmp.o)
 .bss           0x0000000000000000        0x0 e:/appsprograms/devkitpro/devkita64/bin/../lib/gcc/aarch64-none-elf/8.3.0/../../../../aarch64-none-elf/lib/pic\libg.a(lib_a-strncasecmp.o)
 .comment       0x0000000000000000       0x23 e:/appsprograms/devkitpro/devkita64/bin/../lib/gcc/aarch64-none-elf/8.3.0/../../../../aarch64-none-elf/lib/pic\libg.a(lib_a-strncasecmp.o)
 .text          0x0000000000000000        0x0 e:/appsprograms/devkitpro/devkita64/bin/../lib/gcc/aarch64-none-elf/8.3.0/../../../../aarch64-none-elf/lib/pic\libg.a(lib_a-strtol.o)
 .data          0x0000000000000000        0x0 e:/appsprograms/devkitpro/devkita64/bin/../lib/gcc/aarch64-none-elf/8.3.0/../../../../aarch64-none-elf/lib/pic\libg.a(lib_a-strtol.o)
 .bss           0x0000000000000000        0x0 e:/appsprograms/devkitpro/devkita64/bin/../lib/gcc/aarch64-none-elf/8.3.0/../../../../aarch64-none-elf/lib/pic\libg.a(lib_a-strtol.o)
 .comment       0x0000000000000000       0x23 e:/appsprograms/devkitpro/devkita64/bin/../lib/gcc/aarch64-none-elf/8.3.0/../../../../aarch64-none-elf/lib/pic\libg.a(lib_a-strtol.o)
 .text          0x0000000000000000        0x0 e:/appsprograms/devkitpro/devkita64/bin/../lib/gcc/aarch64-none-elf/8.3.0/../../../../aarch64-none-elf/lib/pic\libg.a(lib_a-svfiprintf.o)
 .data          0x0000000000000000        0x0 e:/appsprograms/devkitpro/devkita64/bin/../lib/gcc/aarch64-none-elf/8.3.0/../../../../aarch64-none-elf/lib/pic\libg.a(lib_a-svfiprintf.o)
 .bss           0x0000000000000000        0x0 e:/appsprograms/devkitpro/devkita64/bin/../lib/gcc/aarch64-none-elf/8.3.0/../../../../aarch64-none-elf/lib/pic\libg.a(lib_a-svfiprintf.o)
 .comment       0x0000000000000000       0x23 e:/appsprograms/devkitpro/devkita64/bin/../lib/gcc/aarch64-none-elf/8.3.0/../../../../aarch64-none-elf/lib/pic\libg.a(lib_a-svfiprintf.o)
 .text          0x0000000000000000        0x0 e:/appsprograms/devkitpro/devkita64/bin/../lib/gcc/aarch64-none-elf/8.3.0/../../../../aarch64-none-elf/lib/pic\libg.a(lib_a-wcsnrtombs.o)
 .data          0x0000000000000000        0x0 e:/appsprograms/devkitpro/devkita64/bin/../lib/gcc/aarch64-none-elf/8.3.0/../../../../aarch64-none-elf/lib/pic\libg.a(lib_a-wcsnrtombs.o)
 .bss           0x0000000000000000        0x0 e:/appsprograms/devkitpro/devkita64/bin/../lib/gcc/aarch64-none-elf/8.3.0/../../../../aarch64-none-elf/lib/pic\libg.a(lib_a-wcsnrtombs.o)
 .comment       0x0000000000000000       0x23 e:/appsprograms/devkitpro/devkita64/bin/../lib/gcc/aarch64-none-elf/8.3.0/../../../../aarch64-none-elf/lib/pic\libg.a(lib_a-wcsnrtombs.o)
 .text          0x0000000000000000        0x0 e:/appsprograms/devkitpro/devkita64/bin/../lib/gcc/aarch64-none-elf/8.3.0/../../../../aarch64-none-elf/lib/pic\libg.a(lib_a-wctomb_r.o)
 .data          0x0000000000000000        0x0 e:/appsprograms/devkitpro/devkita64/bin/../lib/gcc/aarch64-none-elf/8.3.0/../../../../aarch64-none-elf/lib/pic\libg.a(lib_a-wctomb_r.o)
 .bss           0x0000000000000000        0x0 e:/appsprograms/devkitpro/devkita64/bin/../lib/gcc/aarch64-none-elf/8.3.0/../../../../aarch64-none-elf/lib/pic\libg.a(lib_a-wctomb_r.o)
 .comment       0x0000000000000000       0x23 e:/appsprograms/devkitpro/devkita64/bin/../lib/gcc/aarch64-none-elf/8.3.0/../../../../aarch64-none-elf/lib/pic\libg.a(lib_a-wctomb_r.o)
 .text          0x0000000000000000        0x0 e:/appsprograms/devkitpro/devkita64/bin/../lib/gcc/aarch64-none-elf/8.3.0/../../../../aarch64-none-elf/lib/pic\libg.a(lib_a-callocr.o)
 .data          0x0000000000000000        0x0 e:/appsprograms/devkitpro/devkita64/bin/../lib/gcc/aarch64-none-elf/8.3.0/../../../../aarch64-none-elf/lib/pic\libg.a(lib_a-callocr.o)
 .bss           0x0000000000000000        0x0 e:/appsprograms/devkitpro/devkita64/bin/../lib/gcc/aarch64-none-elf/8.3.0/../../../../aarch64-none-elf/lib/pic\libg.a(lib_a-callocr.o)
 .comment       0x0000000000000000       0x23 e:/appsprograms/devkitpro/devkita64/bin/../lib/gcc/aarch64-none-elf/8.3.0/../../../../aarch64-none-elf/lib/pic\libg.a(lib_a-callocr.o)
 .text          0x0000000000000000        0x0 e:/appsprograms/devkitpro/devkita64/bin/../lib/gcc/aarch64-none-elf/8.3.0/../../../../aarch64-none-elf/lib/pic\libsysbase.a(iosupport.o)
 .data          0x0000000000000000        0x0 e:/appsprograms/devkitpro/devkita64/bin/../lib/gcc/aarch64-none-elf/8.3.0/../../../../aarch64-none-elf/lib/pic\libsysbase.a(iosupport.o)
 .bss           0x0000000000000000        0x0 e:/appsprograms/devkitpro/devkita64/bin/../lib/gcc/aarch64-none-elf/8.3.0/../../../../aarch64-none-elf/lib/pic\libsysbase.a(iosupport.o)
 .comment       0x0000000000000000       0x23 e:/appsprograms/devkitpro/devkita64/bin/../lib/gcc/aarch64-none-elf/8.3.0/../../../../aarch64-none-elf/lib/pic\libsysbase.a(iosupport.o)
 .text          0x0000000000000000        0x0 e:/appsprograms/devkitpro/devkita64/bin/../lib/gcc/aarch64-none-elf/8.3.0/../../../../aarch64-none-elf/lib/pic\libsysbase.a(sbrk.o)
 .data          0x0000000000000000        0x0 e:/appsprograms/devkitpro/devkita64/bin/../lib/gcc/aarch64-none-elf/8.3.0/../../../../aarch64-none-elf/lib/pic\libsysbase.a(sbrk.o)
 .bss           0x0000000000000000        0x0 e:/appsprograms/devkitpro/devkita64/bin/../lib/gcc/aarch64-none-elf/8.3.0/../../../../aarch64-none-elf/lib/pic\libsysbase.a(sbrk.o)
 .comment       0x0000000000000000       0x23 e:/appsprograms/devkitpro/devkita64/bin/../lib/gcc/aarch64-none-elf/8.3.0/../../../../aarch64-none-elf/lib/pic\libsysbase.a(sbrk.o)
 .text          0x0000000000000000        0x0 e:/appsprograms/devkitpro/devkita64/bin/../lib/gcc/aarch64-none-elf/8.3.0/../../../../aarch64-none-elf/lib/pic\libsysbase.a(_exit.o)
 .data          0x0000000000000000        0x0 e:/appsprograms/devkitpro/devkita64/bin/../lib/gcc/aarch64-none-elf/8.3.0/../../../../aarch64-none-elf/lib/pic\libsysbase.a(_exit.o)
 .bss           0x0000000000000000        0x0 e:/appsprograms/devkitpro/devkita64/bin/../lib/gcc/aarch64-none-elf/8.3.0/../../../../aarch64-none-elf/lib/pic\libsysbase.a(_exit.o)
 .comment       0x0000000000000000       0x23 e:/appsprograms/devkitpro/devkita64/bin/../lib/gcc/aarch64-none-elf/8.3.0/../../../../aarch64-none-elf/lib/pic\libsysbase.a(_exit.o)
 .text          0x0000000000000000        0x0 e:/appsprograms/devkitpro/devkita64/bin/../lib/gcc/aarch64-none-elf/8.3.0/../../../../aarch64-none-elf/lib/pic\libsysbase.a(malloc_vars.o)
 .data          0x0000000000000000        0x0 e:/appsprograms/devkitpro/devkita64/bin/../lib/gcc/aarch64-none-elf/8.3.0/../../../../aarch64-none-elf/lib/pic\libsysbase.a(malloc_vars.o)
 .bss           0x0000000000000000        0x0 e:/appsprograms/devkitpro/devkita64/bin/../lib/gcc/aarch64-none-elf/8.3.0/../../../../aarch64-none-elf/lib/pic\libsysbase.a(malloc_vars.o)
 .comment       0x0000000000000000       0x23 e:/appsprograms/devkitpro/devkita64/bin/../lib/gcc/aarch64-none-elf/8.3.0/../../../../aarch64-none-elf/lib/pic\libsysbase.a(malloc_vars.o)
 .text          0x0000000000000000        0x0 e:/appsprograms/devkitpro/devkita64/bin/../lib/gcc/aarch64-none-elf/8.3.0/../../../../aarch64-none-elf/lib/pic\libsysbase.a(chdir.o)
 .data          0x0000000000000000        0x0 e:/appsprograms/devkitpro/devkita64/bin/../lib/gcc/aarch64-none-elf/8.3.0/../../../../aarch64-none-elf/lib/pic\libsysbase.a(chdir.o)
 .bss           0x0000000000000000        0x0 e:/appsprograms/devkitpro/devkita64/bin/../lib/gcc/aarch64-none-elf/8.3.0/../../../../aarch64-none-elf/lib/pic\libsysbase.a(chdir.o)
 .comment       0x0000000000000000       0x23 e:/appsprograms/devkitpro/devkita64/bin/../lib/gcc/aarch64-none-elf/8.3.0/../../../../aarch64-none-elf/lib/pic\libsysbase.a(chdir.o)
 .text          0x0000000000000000        0x0 e:/appsprograms/devkitpro/devkita64/bin/../lib/gcc/aarch64-none-elf/8.3.0/../../../../aarch64-none-elf/lib/pic\libsysbase.a(locks.o)
 .data          0x0000000000000000        0x0 e:/appsprograms/devkitpro/devkita64/bin/../lib/gcc/aarch64-none-elf/8.3.0/../../../../aarch64-none-elf/lib/pic\libsysbase.a(locks.o)
 .bss           0x0000000000000000        0x0 e:/appsprograms/devkitpro/devkita64/bin/../lib/gcc/aarch64-none-elf/8.3.0/../../../../aarch64-none-elf/lib/pic\libsysbase.a(locks.o)
 .comment       0x0000000000000000       0x23 e:/appsprograms/devkitpro/devkita64/bin/../lib/gcc/aarch64-none-elf/8.3.0/../../../../aarch64-none-elf/lib/pic\libsysbase.a(locks.o)
 .text          0x0000000000000000        0x0 e:/appsprograms/devkitpro/devkita64/bin/../lib/gcc/aarch64-none-elf/8.3.0/../../../../aarch64-none-elf/lib/pic\libsysbase.a(getreent.o)
 .data          0x0000000000000000        0x0 e:/appsprograms/devkitpro/devkita64/bin/../lib/gcc/aarch64-none-elf/8.3.0/../../../../aarch64-none-elf/lib/pic\libsysbase.a(getreent.o)
 .bss           0x0000000000000000        0x0 e:/appsprograms/devkitpro/devkita64/bin/../lib/gcc/aarch64-none-elf/8.3.0/../../../../aarch64-none-elf/lib/pic\libsysbase.a(getreent.o)
 .comment       0x0000000000000000       0x23 e:/appsprograms/devkitpro/devkita64/bin/../lib/gcc/aarch64-none-elf/8.3.0/../../../../aarch64-none-elf/lib/pic\libsysbase.a(getreent.o)
 .text          0x0000000000000000        0x0 e:/appsprograms/devkitpro/devkita64/bin/../lib/gcc/aarch64-none-elf/8.3.0/../../../../aarch64-none-elf/lib/pic\libsysbase.a(clocks.o)
 .data          0x0000000000000000        0x0 e:/appsprograms/devkitpro/devkita64/bin/../lib/gcc/aarch64-none-elf/8.3.0/../../../../aarch64-none-elf/lib/pic\libsysbase.a(clocks.o)
 .bss           0x0000000000000000        0x0 e:/appsprograms/devkitpro/devkita64/bin/../lib/gcc/aarch64-none-elf/8.3.0/../../../../aarch64-none-elf/lib/pic\libsysbase.a(clocks.o)
 .comment       0x0000000000000000       0x23 e:/appsprograms/devkitpro/devkita64/bin/../lib/gcc/aarch64-none-elf/8.3.0/../../../../aarch64-none-elf/lib/pic\libsysbase.a(clocks.o)
 .text          0x0000000000000000        0x0 e:/appsprograms/devkitpro/devkita64/bin/../lib/gcc/aarch64-none-elf/8.3.0/pic\libgcc.a(trunctfdf2.o)
 .data          0x0000000000000000        0x0 e:/appsprograms/devkitpro/devkita64/bin/../lib/gcc/aarch64-none-elf/8.3.0/pic\libgcc.a(trunctfdf2.o)
 .bss           0x0000000000000000        0x0 e:/appsprograms/devkitpro/devkita64/bin/../lib/gcc/aarch64-none-elf/8.3.0/pic\libgcc.a(trunctfdf2.o)
 .comment       0x0000000000000000       0x23 e:/appsprograms/devkitpro/devkita64/bin/../lib/gcc/aarch64-none-elf/8.3.0/pic\libgcc.a(trunctfdf2.o)
 .text          0x0000000000000000        0x0 e:/appsprograms/devkitpro/devkita64/bin/../lib/gcc/aarch64-none-elf/8.3.0/pic\libgcc.a(sfp-exceptions.o)
 .data          0x0000000000000000        0x0 e:/appsprograms/devkitpro/devkita64/bin/../lib/gcc/aarch64-none-elf/8.3.0/pic\libgcc.a(sfp-exceptions.o)
 .bss           0x0000000000000000        0x0 e:/appsprograms/devkitpro/devkita64/bin/../lib/gcc/aarch64-none-elf/8.3.0/pic\libgcc.a(sfp-exceptions.o)
 .comment       0x0000000000000000       0x23 e:/appsprograms/devkitpro/devkita64/bin/../lib/gcc/aarch64-none-elf/8.3.0/pic\libgcc.a(sfp-exceptions.o)
 .data          0x0000000000000000        0x0 e:/appsprograms/devkitpro/devkita64/bin/../lib/gcc/aarch64-none-elf/8.3.0/../../../../aarch64-none-elf/lib/pic\libg.a(lib_a-strrchr.o)
 .bss           0x0000000000000000        0x0 e:/appsprograms/devkitpro/devkita64/bin/../lib/gcc/aarch64-none-elf/8.3.0/../../../../aarch64-none-elf/lib/pic\libg.a(lib_a-strrchr.o)
 .text          0x0000000000000000        0x0 e:/appsprograms/devkitpro/devkita64/bin/../lib/gcc/aarch64-none-elf/8.3.0/pic/crtend.o
 .data          0x0000000000000000        0x0 e:/appsprograms/devkitpro/devkita64/bin/../lib/gcc/aarch64-none-elf/8.3.0/pic/crtend.o
 .bss           0x0000000000000000        0x0 e:/appsprograms/devkitpro/devkita64/bin/../lib/gcc/aarch64-none-elf/8.3.0/pic/crtend.o
 .comment       0x0000000000000000       0x23 e:/appsprograms/devkitpro/devkita64/bin/../lib/gcc/aarch64-none-elf/8.3.0/pic/crtend.o
 .text          0x0000000000000000        0x0 e:/appsprograms/devkitpro/devkita64/bin/../lib/gcc/aarch64-none-elf/8.3.0/pic/crtn.o
 .data          0x0000000000000000        0x0 e:/appsprograms/devkitpro/devkita64/bin/../lib/gcc/aarch64-none-elf/8.3.0/pic/crtn.o
 .bss           0x0000000000000000        0x0 e:/appsprograms/devkitpro/devkita64/bin/../lib/gcc/aarch64-none-elf/8.3.0/pic/crtn.o

Memory Configuration

Name             Origin             Length             Attributes
*default*        0x0000000000000000 0xffffffffffffffff

Linker script and memory map

                0x0000000000000000                PROVIDE (__start__ = 0x0)
                0x0000000000000000                . = __start__

.crt0           0x0000000000000000      0x158
 *(.crt0)
 .crt0          0x0000000000000000      0x158 E:/SmashProjects/EveryoneHasWitchTime/code-mod-framework/lib/libnx_min/nx/lib\libnx_min.a(switch_crt0.o)
                0x0000000000000000                _start
                0x0000000000000120                __nx_exit
                0x0000000000000130                __nx_mod0
                0x0000000000000158                . = ALIGN (0x8)

.init           0x0000000000000158       0x38
 *(.init)
 .init          0x0000000000000158       0x18 e:/appsprograms/devkitpro/devkita64/bin/../lib/gcc/aarch64-none-elf/8.3.0/pic/crti.o
                0x0000000000000158                _init
 .init          0x0000000000000170       0x1c e:/appsprograms/devkitpro/devkita64/bin/../lib/gcc/aarch64-none-elf/8.3.0/pic/crtn.o
                0x0000000000000190                . = ALIGN (0x8)
 *fill*         0x000000000000018c        0x4 

.plt            0x0000000000000190       0xa0
 *(.plt)
 .plt           0x0000000000000190       0xa0 e:/appsprograms/devkitpro/devkita64/bin/../lib/gcc/aarch64-none-elf/8.3.0/pic/crti.o
 *(.iplt)
                0x0000000000000230                . = ALIGN (0x8)

.text           0x0000000000000240    0x29c40
 *(.text.unlikely .text.*_unlikely .text.unlikely.*)
 *(.text.exit .text.exit.*)
 .text.exit     0x0000000000000240       0x38 e:/appsprograms/devkitpro/devkita64/bin/../lib/gcc/aarch64-none-elf/8.3.0/../../../../aarch64-none-elf/lib/pic\libg.a(lib_a-exit.o)
                0x0000000000000240                exit
 *(.text.startup .text.startup.*)
 *fill*         0x0000000000000278        0x8 
 .text.startup  0x0000000000000280      0x164 main.o
                0x0000000000000280                main
 *(.text.hot .text.hot.*)
 *(.text .stub .text.* .gnu.linkonce.t.*)
 *fill*         0x00000000000003e4        0x4 
 .text.deregister_tm_clones
                0x00000000000003e8       0x2c e:/appsprograms/devkitpro/devkita64/bin/../lib/gcc/aarch64-none-elf/8.3.0/pic/crtbegin.o
 *fill*         0x0000000000000414        0x4 
 .text.register_tm_clones
                0x0000000000000418       0x38 e:/appsprograms/devkitpro/devkita64/bin/../lib/gcc/aarch64-none-elf/8.3.0/pic/crtbegin.o
 .text.__do_global_dtors_aux
                0x0000000000000450       0x48 e:/appsprograms/devkitpro/devkita64/bin/../lib/gcc/aarch64-none-elf/8.3.0/pic/crtbegin.o
 .text.frame_dummy
                0x0000000000000498       0x34 e:/appsprograms/devkitpro/devkita64/bin/../lib/gcc/aarch64-none-elf/8.3.0/pic/crtbegin.o
 *fill*         0x00000000000004cc        0x4 
 .text          0x00000000000004d0      0x960 main.o
                0x0000000000000620                clear_lua_stack_replace(lib::L2CAgent*)
                0x00000000000009e0                get_command_flag_cat_replace(unsigned long, int)
                0x0000000000000c50                replace_scripts(lib::L2CAgent*, unsigned char, int)
                0x0000000000000ca0                sv_get_status_func(unsigned long, int, unsigned long)
                0x0000000000000cf0                sv_replace_status_func(unsigned long, int, unsigned long, void*)
                0x0000000000000d30                script_replacement()
                0x0000000000000d90                __libnx_init
                0x0000000000000de0                __libnx_exit
 .text          0x0000000000000e30      0xbe8 acmd_wrapper.o
                0x0000000000000e30                is_before_frame(unsigned long, float)
                0x0000000000000e60                null_acmd_func(lib::L2CAgent*, void*)
                0x0000000000000e70                load_module(unsigned long, unsigned long)
                0x0000000000000e80                load_module_impl(unsigned long, unsigned long)
                0x0000000000000e90                ACMD::ACMD()
                0x0000000000000e90                ACMD::ACMD()
                0x0000000000000ea0                ACMD::ACMD(char const*, char const*, char const*, char const*, void (*)(ACMD*))
                0x0000000000000ea0                ACMD::ACMD(char const*, char const*, char const*, char const*, void (*)(ACMD*))
                0x0000000000000ec0                ACMD::match()
                0x0000000000000f70                ACMD::nullify_original(lib::L2CAgent*)
                0x0000000000001040                ACMD::run(lib::L2CAgent*)
                0x0000000000001130                ACMD::frame(float)
                0x0000000000001150                ACMD::wait(float)
                0x0000000000001160                ACMD::is_excute()
                0x00000000000011e0                ACMD::_frame(float)
                0x0000000000001270                ACMD::_frame_reimpl(float)
                0x0000000000001360                ACMD::_wait(float)
                0x00000000000013f0                ACMD::_is_excute()
                0x0000000000001490                ACMD::wrap(void (*)(unsigned long), std::initializer_list<lib::L2CValue>)
                0x0000000000001530                ACMD::ATTACK(unsigned long, unsigned long, unsigned long, float, unsigned long, unsigned long, unsigned long, unsigned long, float, float, float, float, float, float, unsigned long, unsigned long, unsigned long, unsigned long, float, unsigned long, unsigned long, unsigned long, unsigned long, unsigned long, unsigned long, unsigned long, unsigned long, unsigned long, unsigned long, unsigned long, unsigned long, unsigned long, unsigned long)
                0x00000000000017b0                ACMD::ATTACK(unsigned long, unsigned long, unsigned long, float, unsigned long, unsigned long, unsigned long, unsigned long, float, float, float, float, float, float, float, float, float, unsigned long, unsigned long, unsigned long, unsigned long, float, unsigned long, unsigned long, unsigned long, unsigned long, unsigned long, unsigned long, unsigned long, unsigned long, unsigned long, unsigned long, unsigned long, unsigned long, unsigned long, unsigned long)
 *fill*         0x0000000000001a18        0x8 
 .text          0x0000000000001a20      0x124 saltysd_helper.o
                0x0000000000001a20                SaltySD_function_replace(unsigned long, unsigned long)
                0x0000000000001a90                SaltySD_function_replace_sym(char*, unsigned long)
                0x0000000000001ac0                SaltySD_function_replace_sym_check_prev(char*, unsigned long, unsigned long&)
 *fill*         0x0000000000001b44        0xc 
 .text          0x0000000000001b50      0x350 lua_bind_hash.o
                0x0000000000001b50                lua_bind_hash(void const*, unsigned long)
                0x0000000000001e70                lua_bind_hash_str(char const*)
 .text          0x0000000000001ea0      0x128 l2c_imports.o
                0x0000000000001ea0                lib::lua_const(char const*)
                0x0000000000001ee0                lib::L2CValue::L2CValue()
                0x0000000000001ee0                lib::L2CValue::L2CValue()
                0x0000000000001ef0                lib::L2CValue::L2CValue(bool)
                0x0000000000001ef0                lib::L2CValue::L2CValue(bool)
                0x0000000000001f10                lib::L2CValue::L2CValue(int)
                0x0000000000001f10                lib::L2CValue::L2CValue(int)
                0x0000000000001f30                lib::L2CValue::L2CValue(unsigned long)
                0x0000000000001f30                lib::L2CValue::L2CValue(unsigned long)
                0x0000000000001f40                lib::L2CValue::L2CValue(float)
                0x0000000000001f40                lib::L2CValue::L2CValue(float)
                0x0000000000001f50                lib::L2CValue::L2CValue(double)
                0x0000000000001f50                lib::L2CValue::L2CValue(double)
                0x0000000000001f70                lib::L2CValue::L2CValue(char const*)
                0x0000000000001f70                lib::L2CValue::L2CValue(char const*)
                0x0000000000001f80                lib::L2CAgent::get_lua_stack(int, lib::L2CValue*)
                0x0000000000001f90                lib::L2CAgent::_clear_lua_stack()
 *fill*         0x0000000000001fc8        0x8 
 .text          0x0000000000001fd0      0x500 raygun_printer.o
                0x0000000000001fd0                show_segment(unsigned long, float, float, float, float, float)
                0x00000000000020a0                alphabet_index(char)
                0x0000000000002110                print_char(unsigned long, char, int, float, float)
                0x0000000000002270                print_string(unsigned long, char const*, ...)
 .text.__libnx_exception_entry
                0x00000000000024d0      0x1c0 E:/SmashProjects/EveryoneHasWitchTime/code-mod-framework/lib/libnx_min/nx/lib\libnx_min.a(exception.o)
                0x00000000000024d0                __libnx_exception_entry
 .text.__libnx_exception_returnentry
                0x0000000000002690       0x18 E:/SmashProjects/EveryoneHasWitchTime/code-mod-framework/lib/libnx_min/nx/lib\libnx_min.a(exception.o)
                0x0000000000002690                __libnx_exception_returnentry
 *fill*         0x00000000000026a8        0x8 
 .text.argvSetup
                0x00000000000026b0      0x318 E:/SmashProjects/EveryoneHasWitchTime/code-mod-framework/lib/libnx_min/nx/lib\libnx_min.a(argv.o)
                0x00000000000026b0                argvSetup
 *fill*         0x00000000000029c8        0x8 
 .text.envSetup
                0x00000000000029d0      0x208 E:/SmashProjects/EveryoneHasWitchTime/code-mod-framework/lib/libnx_min/nx/lib\libnx_min.a(env.o)
                0x00000000000029d0                envSetup
 *fill*         0x0000000000002bd8        0x8 
 .text.envGetMainThreadHandle
                0x0000000000002be0       0x20 E:/SmashProjects/EveryoneHasWitchTime/code-mod-framework/lib/libnx_min/nx/lib\libnx_min.a(env.o)
                0x0000000000002be0                envGetMainThreadHandle
 .text.envIsNso
                0x0000000000002c00        0xc E:/SmashProjects/EveryoneHasWitchTime/code-mod-framework/lib/libnx_min/nx/lib\libnx_min.a(env.o)
                0x0000000000002c00                envIsNso
 *fill*         0x0000000000002c0c        0x4 
 .text.envHasHeapOverride
                0x0000000000002c10       0x14 E:/SmashProjects/EveryoneHasWitchTime/code-mod-framework/lib/libnx_min/nx/lib\libnx_min.a(env.o)
                0x0000000000002c10                envHasHeapOverride
 *fill*         0x0000000000002c24        0xc 
 .text.envGetHeapOverrideAddr
                0x0000000000002c30        0xc E:/SmashProjects/EveryoneHasWitchTime/code-mod-framework/lib/libnx_min/nx/lib\libnx_min.a(env.o)
                0x0000000000002c30                envGetHeapOverrideAddr
 *fill*         0x0000000000002c3c        0x4 
 .text.envGetHeapOverrideSize
                0x0000000000002c40        0xc E:/SmashProjects/EveryoneHasWitchTime/code-mod-framework/lib/libnx_min/nx/lib\libnx_min.a(env.o)
                0x0000000000002c40                envGetHeapOverrideSize
 *fill*         0x0000000000002c4c        0x4 
 .text.envHasArgv
                0x0000000000002c50       0x14 E:/SmashProjects/EveryoneHasWitchTime/code-mod-framework/lib/libnx_min/nx/lib\libnx_min.a(env.o)
                0x0000000000002c50                envHasArgv
 *fill*         0x0000000000002c64        0xc 
 .text.envGetArgv
                0x0000000000002c70        0xc E:/SmashProjects/EveryoneHasWitchTime/code-mod-framework/lib/libnx_min/nx/lib\libnx_min.a(env.o)
                0x0000000000002c70                envGetArgv
 *fill*         0x0000000000002c7c        0x4 
 .text.envIsSyscallHinted
                0x0000000000002c80       0x20 E:/SmashProjects/EveryoneHasWitchTime/code-mod-framework/lib/libnx_min/nx/lib\libnx_min.a(env.o)
                0x0000000000002c80                envIsSyscallHinted
 .text.envGetOwnProcessHandle
                0x0000000000002ca0        0xc E:/SmashProjects/EveryoneHasWitchTime/code-mod-framework/lib/libnx_min/nx/lib\libnx_min.a(env.o)
                0x0000000000002ca0                envGetOwnProcessHandle
 *fill*         0x0000000000002cac        0x4 
 .text.envGetExitFuncPtr
                0x0000000000002cb0        0xc E:/SmashProjects/EveryoneHasWitchTime/code-mod-framework/lib/libnx_min/nx/lib\libnx_min.a(env.o)
                0x0000000000002cb0                envGetExitFuncPtr
 *fill*         0x0000000000002cbc        0x4 
 .text.envSetExitFuncPtr
                0x0000000000002cc0        0xc E:/SmashProjects/EveryoneHasWitchTime/code-mod-framework/lib/libnx_min/nx/lib\libnx_min.a(env.o)
                0x0000000000002cc0                envSetExitFuncPtr
 *fill*         0x0000000000002ccc        0x4 
 .text.envSetNextLoad
                0x0000000000002cd0       0x7c E:/SmashProjects/EveryoneHasWitchTime/code-mod-framework/lib/libnx_min/nx/lib\libnx_min.a(env.o)
                0x0000000000002cd0                envSetNextLoad
 *fill*         0x0000000000002d4c        0x4 
 .text.envHasNextLoad
                0x0000000000002d50       0x14 E:/SmashProjects/EveryoneHasWitchTime/code-mod-framework/lib/libnx_min/nx/lib\libnx_min.a(env.o)
                0x0000000000002d50                envHasNextLoad
 *fill*         0x0000000000002d64        0xc 
 .text.envGetLastLoadResult
                0x0000000000002d70        0xc E:/SmashProjects/EveryoneHasWitchTime/code-mod-framework/lib/libnx_min/nx/lib\libnx_min.a(env.o)
                0x0000000000002d70                envGetLastLoadResult
 *fill*         0x0000000000002d7c        0x4 
 .text.envHasRandomSeed
                0x0000000000002d80        0xc E:/SmashProjects/EveryoneHasWitchTime/code-mod-framework/lib/libnx_min/nx/lib\libnx_min.a(env.o)
                0x0000000000002d80                envHasRandomSeed
 *fill*         0x0000000000002d8c        0x4 
 .text.envGetRandomSeed
                0x0000000000002d90       0x18 E:/SmashProjects/EveryoneHasWitchTime/code-mod-framework/lib/libnx_min/nx/lib\libnx_min.a(env.o)
                0x0000000000002d90                envGetRandomSeed
 *fill*         0x0000000000002da8        0x8 
 .text.__libnx_initheap
                0x0000000000002db0       0xd8 E:/SmashProjects/EveryoneHasWitchTime/code-mod-framework/lib/libnx_min/nx/lib\libnx_min.a(init.o)
                0x0000000000002db0                __libnx_initheap
 *fill*         0x0000000000002e88        0x8 
 .text.__appInit
                0x0000000000002e90       0xdc E:/SmashProjects/EveryoneHasWitchTime/code-mod-framework/lib/libnx_min/nx/lib\libnx_min.a(init.o)
                0x0000000000002e90                __appInit
 *fill*         0x0000000000002f6c        0x4 
 .text.__appExit
                0x0000000000002f70       0x44 E:/SmashProjects/EveryoneHasWitchTime/code-mod-framework/lib/libnx_min/nx/lib\libnx_min.a(init.o)
                0x0000000000002f70                __appExit
 *fill*         0x0000000000002fb4        0xc 
 .text.hosversionGet
                0x0000000000002fc0       0x10 E:/SmashProjects/EveryoneHasWitchTime/code-mod-framework/lib/libnx_min/nx/lib\libnx_min.a(hosversion.o)
                0x0000000000002fc0                hosversionGet
 .text.hosversionSet
                0x0000000000002fd0       0x10 E:/SmashProjects/EveryoneHasWitchTime/code-mod-framework/lib/libnx_min/nx/lib\libnx_min.a(hosversion.o)
                0x0000000000002fd0                hosversionSet
 .text.__nx_dynamic
                0x0000000000002fe0       0xa0 E:/SmashProjects/EveryoneHasWitchTime/code-mod-framework/lib/libnx_min/nx/lib\libnx_min.a(dynamic.o)
                0x0000000000002fe0                __nx_dynamic
 .text.fsdev_link
                0x0000000000003080       0x10 E:/SmashProjects/EveryoneHasWitchTime/code-mod-framework/lib/libnx_min/nx/lib\libnx_min.a(fs_dev.o)
 .text.fsdev_dirreset
                0x0000000000003090       0x10 E:/SmashProjects/EveryoneHasWitchTime/code-mod-framework/lib/libnx_min/nx/lib\libnx_min.a(fs_dev.o)
 .text.fsdev_chmod
                0x00000000000030a0       0x10 E:/SmashProjects/EveryoneHasWitchTime/code-mod-framework/lib/libnx_min/nx/lib\libnx_min.a(fs_dev.o)
 .text.error_cmp
                0x00000000000030b0       0x1c E:/SmashProjects/EveryoneHasWitchTime/code-mod-framework/lib/libnx_min/nx/lib\libnx_min.a(fs_dev.o)
 *fill*         0x00000000000030cc        0x4 
 .text.fsdev_translate_error
                0x00000000000030d0       0x5c E:/SmashProjects/EveryoneHasWitchTime/code-mod-framework/lib/libnx_min/nx/lib\libnx_min.a(fs_dev.o)
 *fill*         0x000000000000312c        0x4 
 .text.fsdev_fsync
                0x0000000000003130       0x40 E:/SmashProjects/EveryoneHasWitchTime/code-mod-framework/lib/libnx_min/nx/lib\libnx_min.a(fs_dev.o)
 .text.fsdev_ftruncate
                0x0000000000003170       0x60 E:/SmashProjects/EveryoneHasWitchTime/code-mod-framework/lib/libnx_min/nx/lib\libnx_min.a(fs_dev.o)
 .text.fsdev_dirclose
                0x00000000000031d0       0x20 E:/SmashProjects/EveryoneHasWitchTime/code-mod-framework/lib/libnx_min/nx/lib\libnx_min.a(fs_dev.o)
 .text.fsdev_dirnext
                0x00000000000031f0      0x16c E:/SmashProjects/EveryoneHasWitchTime/code-mod-framework/lib/libnx_min/nx/lib\libnx_min.a(fs_dev.o)
 *fill*         0x000000000000335c        0x4 
 .text.fsdev_close
                0x0000000000003360       0x1c E:/SmashProjects/EveryoneHasWitchTime/code-mod-framework/lib/libnx_min/nx/lib\libnx_min.a(fs_dev.o)
 *fill*         0x000000000000337c        0x4 
 .text.fsdev_fstat
                0x0000000000003380       0xa4 E:/SmashProjects/EveryoneHasWitchTime/code-mod-framework/lib/libnx_min/nx/lib\libnx_min.a(fs_dev.o)
 *fill*         0x0000000000003424        0xc 
 .text.fsdev_seek
                0x0000000000003430       0xb0 E:/SmashProjects/EveryoneHasWitchTime/code-mod-framework/lib/libnx_min/nx/lib\libnx_min.a(fs_dev.o)
 .text.fsdev_read
                0x00000000000034e0      0x1a0 E:/SmashProjects/EveryoneHasWitchTime/code-mod-framework/lib/libnx_min/nx/lib\libnx_min.a(fs_dev.o)
 .text.fsdev_write
                0x0000000000003680      0x1a8 E:/SmashProjects/EveryoneHasWitchTime/code-mod-framework/lib/libnx_min/nx/lib\libnx_min.a(fs_dev.o)
 *fill*         0x0000000000003828        0x8 
 .text.fsdevFindDevice
                0x0000000000003830      0x120 E:/SmashProjects/EveryoneHasWitchTime/code-mod-framework/lib/libnx_min/nx/lib\libnx_min.a(fs_dev.o)
 .text._fsdevMountDevice
                0x0000000000003950      0x140 E:/SmashProjects/EveryoneHasWitchTime/code-mod-framework/lib/libnx_min/nx/lib\libnx_min.a(fs_dev.o)
 .text.fsdev_getfspath
                0x0000000000003a90      0x1fc E:/SmashProjects/EveryoneHasWitchTime/code-mod-framework/lib/libnx_min/nx/lib\libnx_min.a(fs_dev.o)
 *fill*         0x0000000000003c8c        0x4 
 .text.fsdev_rmdir
                0x0000000000003c90       0x70 E:/SmashProjects/EveryoneHasWitchTime/code-mod-framework/lib/libnx_min/nx/lib\libnx_min.a(fs_dev.o)
 .text.fsdev_statvfs
                0x0000000000003d00       0xd4 E:/SmashProjects/EveryoneHasWitchTime/code-mod-framework/lib/libnx_min/nx/lib\libnx_min.a(fs_dev.o)
 *fill*         0x0000000000003dd4        0xc 
 .text.fsdev_diropen
                0x0000000000003de0       0xec E:/SmashProjects/EveryoneHasWitchTime/code-mod-framework/lib/libnx_min/nx/lib\libnx_min.a(fs_dev.o)
 *fill*         0x0000000000003ecc        0x4 
 .text.fsdev_mkdir
                0x0000000000003ed0       0x70 E:/SmashProjects/EveryoneHasWitchTime/code-mod-framework/lib/libnx_min/nx/lib\libnx_min.a(fs_dev.o)
 .text.fsdev_rename
                0x0000000000003f40      0x114 E:/SmashProjects/EveryoneHasWitchTime/code-mod-framework/lib/libnx_min/nx/lib\libnx_min.a(fs_dev.o)
 *fill*         0x0000000000004054        0xc 
 .text.fsdev_chdir
                0x0000000000004060       0xe8 E:/SmashProjects/EveryoneHasWitchTime/code-mod-framework/lib/libnx_min/nx/lib\libnx_min.a(fs_dev.o)
 *fill*         0x0000000000004148        0x8 
 .text.fsdev_unlink
                0x0000000000004150       0x70 E:/SmashProjects/EveryoneHasWitchTime/code-mod-framework/lib/libnx_min/nx/lib\libnx_min.a(fs_dev.o)
 .text.fsdev_stat
                0x00000000000041c0      0x1bc E:/SmashProjects/EveryoneHasWitchTime/code-mod-framework/lib/libnx_min/nx/lib\libnx_min.a(fs_dev.o)
 *fill*         0x000000000000437c        0x4 
 .text.fsdev_open
                0x0000000000004380      0x19c E:/SmashProjects/EveryoneHasWitchTime/code-mod-framework/lib/libnx_min/nx/lib\libnx_min.a(fs_dev.o)
 *fill*         0x000000000000451c        0x4 
 .text._fsdevUnmountDeviceStruct.part.4
                0x0000000000004520       0xb8 E:/SmashProjects/EveryoneHasWitchTime/code-mod-framework/lib/libnx_min/nx/lib\libnx_min.a(fs_dev.o)
 *fill*         0x00000000000045d8        0x8 
 .text.fsdev_fchmod
                0x00000000000045e0       0x10 E:/SmashProjects/EveryoneHasWitchTime/code-mod-framework/lib/libnx_min/nx/lib\libnx_min.a(fs_dev.o)
 .text.fsdevMountDevice
                0x00000000000045f0       0x14 E:/SmashProjects/EveryoneHasWitchTime/code-mod-framework/lib/libnx_min/nx/lib\libnx_min.a(fs_dev.o)
                0x00000000000045f0                fsdevMountDevice
 *fill*         0x0000000000004604        0xc 
 .text.fsdevUnmountDevice
                0x0000000000004610       0x3c E:/SmashProjects/EveryoneHasWitchTime/code-mod-framework/lib/libnx_min/nx/lib\libnx_min.a(fs_dev.o)
                0x0000000000004610                fsdevUnmountDevice
 *fill*         0x000000000000464c        0x4 
 .text.fsdevCommitDevice
                0x0000000000004650       0x28 E:/SmashProjects/EveryoneHasWitchTime/code-mod-framework/lib/libnx_min/nx/lib\libnx_min.a(fs_dev.o)
                0x0000000000004650                fsdevCommitDevice
 *fill*         0x0000000000004678        0x8 
 .text.fsdevSetArchiveBit
                0x0000000000004680       0x68 E:/SmashProjects/EveryoneHasWitchTime/code-mod-framework/lib/libnx_min/nx/lib\libnx_min.a(fs_dev.o)
                0x0000000000004680                fsdevSetArchiveBit
 *fill*         0x00000000000046e8        0x8 
 .text.fsdevCreateFile
                0x00000000000046f0       0x88 E:/SmashProjects/EveryoneHasWitchTime/code-mod-framework/lib/libnx_min/nx/lib\libnx_min.a(fs_dev.o)
                0x00000000000046f0                fsdevCreateFile
 *fill*         0x0000000000004778        0x8 
 .text.fsdevDeleteDirectoryRecursively
                0x0000000000004780       0x68 E:/SmashProjects/EveryoneHasWitchTime/code-mod-framework/lib/libnx_min/nx/lib\libnx_min.a(fs_dev.o)
                0x0000000000004780                fsdevDeleteDirectoryRecursively
 *fill*         0x00000000000047e8        0x8 
 .text.fsdevMountSdmc
                0x00000000000047f0      0x170 E:/SmashProjects/EveryoneHasWitchTime/code-mod-framework/lib/libnx_min/nx/lib\libnx_min.a(fs_dev.o)
                0x00000000000047f0                fsdevMountSdmc
 .text.fsdevUnmountAll
                0x0000000000004960       0x64 E:/SmashProjects/EveryoneHasWitchTime/code-mod-framework/lib/libnx_min/nx/lib\libnx_min.a(fs_dev.o)
                0x0000000000004960                fsdevUnmountAll
 *fill*         0x00000000000049c4        0xc 
 .text.fsdevGetDeviceFileSystem
                0x00000000000049d0       0x20 E:/SmashProjects/EveryoneHasWitchTime/code-mod-framework/lib/libnx_min/nx/lib\libnx_min.a(fs_dev.o)
                0x00000000000049d0                fsdevGetDeviceFileSystem
 .text.fsdevGetDefaultFileSystem
                0x00000000000049f0       0x40 E:/SmashProjects/EveryoneHasWitchTime/code-mod-framework/lib/libnx_min/nx/lib\libnx_min.a(fs_dev.o)
                0x00000000000049f0                fsdevGetDefaultFileSystem
 .text.fsdevTranslatePath
                0x0000000000004a30       0x58 E:/SmashProjects/EveryoneHasWitchTime/code-mod-framework/lib/libnx_min/nx/lib\libnx_min.a(fs_dev.o)
                0x0000000000004a30                fsdevTranslatePath
 *fill*         0x0000000000004a88        0x8 
 .text.fsdev_getmtime
                0x0000000000004a90       0x20 E:/SmashProjects/EveryoneHasWitchTime/code-mod-framework/lib/libnx_min/nx/lib\libnx_min.a(fs_dev.o)
                0x0000000000004a90                fsdev_getmtime
 .text.fsdevGetLastResult
                0x0000000000004ab0       0x20 E:/SmashProjects/EveryoneHasWitchTime/code-mod-framework/lib/libnx_min/nx/lib\libnx_min.a(fs_dev.o)
                0x0000000000004ab0                fsdevGetLastResult
 .text.decode_utf8
                0x0000000000004ad0      0x12c E:/SmashProjects/EveryoneHasWitchTime/code-mod-framework/lib/libnx_min/nx/lib\libnx_min.a(decode_utf8.o)
                0x0000000000004ad0                decode_utf8
 .text.svcSetHeapSize
                0x0000000000004bfc       0x14 E:/SmashProjects/EveryoneHasWitchTime/code-mod-framework/lib/libnx_min/nx/lib\libnx_min.a(svc.o)
                0x0000000000004bfc                svcSetHeapSize
 .text.svcSetMemoryPermission
                0x0000000000004c10        0x8 E:/SmashProjects/EveryoneHasWitchTime/code-mod-framework/lib/libnx_min/nx/lib\libnx_min.a(svc.o)
                0x0000000000004c10                svcSetMemoryPermission
 .text.svcSetMemoryAttribute
                0x0000000000004c18        0x8 E:/SmashProjects/EveryoneHasWitchTime/code-mod-framework/lib/libnx_min/nx/lib\libnx_min.a(svc.o)
                0x0000000000004c18                svcSetMemoryAttribute
 .text.svcMapMemory
                0x0000000000004c20        0x8 E:/SmashProjects/EveryoneHasWitchTime/code-mod-framework/lib/libnx_min/nx/lib\libnx_min.a(svc.o)
                0x0000000000004c20                svcMapMemory
 .text.svcUnmapMemory
                0x0000000000004c28        0x8 E:/SmashProjects/EveryoneHasWitchTime/code-mod-framework/lib/libnx_min/nx/lib\libnx_min.a(svc.o)
                0x0000000000004c28                svcUnmapMemory
 .text.svcQueryMemory
                0x0000000000004c30       0x14 E:/SmashProjects/EveryoneHasWitchTime/code-mod-framework/lib/libnx_min/nx/lib\libnx_min.a(svc.o)
                0x0000000000004c30                svcQueryMemory
 .text.svcExitProcess
                0x0000000000004c44        0x8 E:/SmashProjects/EveryoneHasWitchTime/code-mod-framework/lib/libnx_min/nx/lib\libnx_min.a(svc.o)
                0x0000000000004c44                svcExitProcess
 .text.svcCreateThread
                0x0000000000004c4c       0x14 E:/SmashProjects/EveryoneHasWitchTime/code-mod-framework/lib/libnx_min/nx/lib\libnx_min.a(svc.o)
                0x0000000000004c4c                svcCreateThread
 .text.svcStartThread
                0x0000000000004c60        0x8 E:/SmashProjects/EveryoneHasWitchTime/code-mod-framework/lib/libnx_min/nx/lib\libnx_min.a(svc.o)
                0x0000000000004c60                svcStartThread
 .text.svcExitThread
                0x0000000000004c68        0x8 E:/SmashProjects/EveryoneHasWitchTime/code-mod-framework/lib/libnx_min/nx/lib\libnx_min.a(svc.o)
                0x0000000000004c68                svcExitThread
 .text.svcSleepThread
                0x0000000000004c70        0x8 E:/SmashProjects/EveryoneHasWitchTime/code-mod-framework/lib/libnx_min/nx/lib\libnx_min.a(svc.o)
                0x0000000000004c70                svcSleepThread
 .text.svcGetThreadPriority
                0x0000000000004c78       0x14 E:/SmashProjects/EveryoneHasWitchTime/code-mod-framework/lib/libnx_min/nx/lib\libnx_min.a(svc.o)
                0x0000000000004c78                svcGetThreadPriority
 .text.svcSetThreadPriority
                0x0000000000004c8c        0x8 E:/SmashProjects/EveryoneHasWitchTime/code-mod-framework/lib/libnx_min/nx/lib\libnx_min.a(svc.o)
                0x0000000000004c8c                svcSetThreadPriority
 .text.svcGetThreadCoreMask
                0x0000000000004c94       0x18 E:/SmashProjects/EveryoneHasWitchTime/code-mod-framework/lib/libnx_min/nx/lib\libnx_min.a(svc.o)
                0x0000000000004c94                svcGetThreadCoreMask
 .text.svcSetThreadCoreMask
                0x0000000000004cac        0x8 E:/SmashProjects/EveryoneHasWitchTime/code-mod-framework/lib/libnx_min/nx/lib\libnx_min.a(svc.o)
                0x0000000000004cac                svcSetThreadCoreMask
 .text.svcGetCurrentProcessorNumber
                0x0000000000004cb4        0x8 E:/SmashProjects/EveryoneHasWitchTime/code-mod-framework/lib/libnx_min/nx/lib\libnx_min.a(svc.o)
                0x0000000000004cb4                svcGetCurrentProcessorNumber
 .text.svcSignalEvent
                0x0000000000004cbc        0x8 E:/SmashProjects/EveryoneHasWitchTime/code-mod-framework/lib/libnx_min/nx/lib\libnx_min.a(svc.o)
                0x0000000000004cbc                svcSignalEvent
 .text.svcClearEvent
                0x0000000000004cc4        0x8 E:/SmashProjects/EveryoneHasWitchTime/code-mod-framework/lib/libnx_min/nx/lib\libnx_min.a(svc.o)
                0x0000000000004cc4                svcClearEvent
 .text.svcMapSharedMemory
                0x0000000000004ccc        0x8 E:/SmashProjects/EveryoneHasWitchTime/code-mod-framework/lib/libnx_min/nx/lib\libnx_min.a(svc.o)
                0x0000000000004ccc                svcMapSharedMemory
 .text.svcUnmapSharedMemory
                0x0000000000004cd4        0x8 E:/SmashProjects/EveryoneHasWitchTime/code-mod-framework/lib/libnx_min/nx/lib\libnx_min.a(svc.o)
                0x0000000000004cd4                svcUnmapSharedMemory
 .text.svcCreateTransferMemory
                0x0000000000004cdc       0x14 E:/SmashProjects/EveryoneHasWitchTime/code-mod-framework/lib/libnx_min/nx/lib\libnx_min.a(svc.o)
                0x0000000000004cdc                svcCreateTransferMemory
 .text.svcCloseHandle
                0x0000000000004cf0        0x8 E:/SmashProjects/EveryoneHasWitchTime/code-mod-framework/lib/libnx_min/nx/lib\libnx_min.a(svc.o)
                0x0000000000004cf0                svcCloseHandle
 .text.svcResetSignal
                0x0000000000004cf8        0x8 E:/SmashProjects/EveryoneHasWitchTime/code-mod-framework/lib/libnx_min/nx/lib\libnx_min.a(svc.o)
                0x0000000000004cf8                svcResetSignal
 .text.svcWaitSynchronization
                0x0000000000004d00       0x14 E:/SmashProjects/EveryoneHasWitchTime/code-mod-framework/lib/libnx_min/nx/lib\libnx_min.a(svc.o)
                0x0000000000004d00                svcWaitSynchronization
 .text.svcCancelSynchronization
                0x0000000000004d14        0x8 E:/SmashProjects/EveryoneHasWitchTime/code-mod-framework/lib/libnx_min/nx/lib\libnx_min.a(svc.o)
                0x0000000000004d14                svcCancelSynchronization
 .text.svcArbitrateLock
                0x0000000000004d1c        0x8 E:/SmashProjects/EveryoneHasWitchTime/code-mod-framework/lib/libnx_min/nx/lib\libnx_min.a(svc.o)
                0x0000000000004d1c                svcArbitrateLock
 .text.svcArbitrateUnlock
                0x0000000000004d24        0x8 E:/SmashProjects/EveryoneHasWitchTime/code-mod-framework/lib/libnx_min/nx/lib\libnx_min.a(svc.o)
                0x0000000000004d24                svcArbitrateUnlock
 .text.svcWaitProcessWideKeyAtomic
                0x0000000000004d2c        0x8 E:/SmashProjects/EveryoneHasWitchTime/code-mod-framework/lib/libnx_min/nx/lib\libnx_min.a(svc.o)
                0x0000000000004d2c                svcWaitProcessWideKeyAtomic
 .text.svcSignalProcessWideKey
                0x0000000000004d34        0x8 E:/SmashProjects/EveryoneHasWitchTime/code-mod-framework/lib/libnx_min/nx/lib\libnx_min.a(svc.o)
                0x0000000000004d34                svcSignalProcessWideKey
 .text.svcGetSystemTick
                0x0000000000004d3c        0x8 E:/SmashProjects/EveryoneHasWitchTime/code-mod-framework/lib/libnx_min/nx/lib\libnx_min.a(svc.o)
                0x0000000000004d3c                svcGetSystemTick
 .text.svcConnectToNamedPort
                0x0000000000004d44       0x14 E:/SmashProjects/EveryoneHasWitchTime/code-mod-framework/lib/libnx_min/nx/lib\libnx_min.a(svc.o)
                0x0000000000004d44                svcConnectToNamedPort
 .text.svcSendSyncRequest
                0x0000000000004d58        0x8 E:/SmashProjects/EveryoneHasWitchTime/code-mod-framework/lib/libnx_min/nx/lib\libnx_min.a(svc.o)
                0x0000000000004d58                svcSendSyncRequest
 .text.svcSendSyncRequestWithUserBuffer
                0x0000000000004d60        0x8 E:/SmashProjects/EveryoneHasWitchTime/code-mod-framework/lib/libnx_min/nx/lib\libnx_min.a(svc.o)
                0x0000000000004d60                svcSendSyncRequestWithUserBuffer
 .text.svcSendAsyncRequestWithUserBuffer
                0x0000000000004d68       0x14 E:/SmashProjects/EveryoneHasWitchTime/code-mod-framework/lib/libnx_min/nx/lib\libnx_min.a(svc.o)
                0x0000000000004d68                svcSendAsyncRequestWithUserBuffer
 .text.svcGetProcessId
                0x0000000000004d7c       0x14 E:/SmashProjects/EveryoneHasWitchTime/code-mod-framework/lib/libnx_min/nx/lib\libnx_min.a(svc.o)
                0x0000000000004d7c                svcGetProcessId
 .text.svcGetThreadId
                0x0000000000004d90       0x14 E:/SmashProjects/EveryoneHasWitchTime/code-mod-framework/lib/libnx_min/nx/lib\libnx_min.a(svc.o)
                0x0000000000004d90                svcGetThreadId
 .text.svcBreak
                0x0000000000004da4        0x8 E:/SmashProjects/EveryoneHasWitchTime/code-mod-framework/lib/libnx_min/nx/lib\libnx_min.a(svc.o)
                0x0000000000004da4                svcBreak
 .text.svcOutputDebugString
                0x0000000000004dac        0x8 E:/SmashProjects/EveryoneHasWitchTime/code-mod-framework/lib/libnx_min/nx/lib\libnx_min.a(svc.o)
                0x0000000000004dac                svcOutputDebugString
 .text.svcReturnFromException
                0x0000000000004db4        0x8 E:/SmashProjects/EveryoneHasWitchTime/code-mod-framework/lib/libnx_min/nx/lib\libnx_min.a(svc.o)
                0x0000000000004db4                svcReturnFromException
 .text.svcGetInfo
                0x0000000000004dbc       0x14 E:/SmashProjects/EveryoneHasWitchTime/code-mod-framework/lib/libnx_min/nx/lib\libnx_min.a(svc.o)
                0x0000000000004dbc                svcGetInfo
 .text.svcMapPhysicalMemory
                0x0000000000004dd0        0x8 E:/SmashProjects/EveryoneHasWitchTime/code-mod-framework/lib/libnx_min/nx/lib\libnx_min.a(svc.o)
                0x0000000000004dd0                svcMapPhysicalMemory
 .text.svcUnmapPhysicalMemory
                0x0000000000004dd8        0x8 E:/SmashProjects/EveryoneHasWitchTime/code-mod-framework/lib/libnx_min/nx/lib\libnx_min.a(svc.o)
                0x0000000000004dd8                svcUnmapPhysicalMemory
 .text.svcGetResourceLimitLimitValue
                0x0000000000004de0       0x14 E:/SmashProjects/EveryoneHasWitchTime/code-mod-framework/lib/libnx_min/nx/lib\libnx_min.a(svc.o)
                0x0000000000004de0                svcGetResourceLimitLimitValue
 .text.svcGetResourceLimitCurrentValue
                0x0000000000004df4       0x14 E:/SmashProjects/EveryoneHasWitchTime/code-mod-framework/lib/libnx_min/nx/lib\libnx_min.a(svc.o)
                0x0000000000004df4                svcGetResourceLimitCurrentValue
 .text.svcSetThreadActivity
                0x0000000000004e08        0x8 E:/SmashProjects/EveryoneHasWitchTime/code-mod-framework/lib/libnx_min/nx/lib\libnx_min.a(svc.o)
                0x0000000000004e08                svcSetThreadActivity
 .text.svcGetThreadContext3
                0x0000000000004e10        0x8 E:/SmashProjects/EveryoneHasWitchTime/code-mod-framework/lib/libnx_min/nx/lib\libnx_min.a(svc.o)
                0x0000000000004e10                svcGetThreadContext3
 .text.svcCreateSession
                0x0000000000004e18       0x18 E:/SmashProjects/EveryoneHasWitchTime/code-mod-framework/lib/libnx_min/nx/lib\libnx_min.a(svc.o)
                0x0000000000004e18                svcCreateSession
 .text.svcAcceptSession
                0x0000000000004e30       0x14 E:/SmashProjects/EveryoneHasWitchTime/code-mod-framework/lib/libnx_min/nx/lib\libnx_min.a(svc.o)
                0x0000000000004e30                svcAcceptSession
 .text.svcReplyAndReceive
                0x0000000000004e44       0x14 E:/SmashProjects/EveryoneHasWitchTime/code-mod-framework/lib/libnx_min/nx/lib\libnx_min.a(svc.o)
                0x0000000000004e44                svcReplyAndReceive
 .text.svcReplyAndReceiveWithUserBuffer
                0x0000000000004e58       0x14 E:/SmashProjects/EveryoneHasWitchTime/code-mod-framework/lib/libnx_min/nx/lib\libnx_min.a(svc.o)
                0x0000000000004e58                svcReplyAndReceiveWithUserBuffer
 .text.svcCreateEvent
                0x0000000000004e6c       0x18 E:/SmashProjects/EveryoneHasWitchTime/code-mod-framework/lib/libnx_min/nx/lib\libnx_min.a(svc.o)
                0x0000000000004e6c                svcCreateEvent
 .text.svcMapPhysicalMemoryUnsafe
                0x0000000000004e84        0x8 E:/SmashProjects/EveryoneHasWitchTime/code-mod-framework/lib/libnx_min/nx/lib\libnx_min.a(svc.o)
                0x0000000000004e84                svcMapPhysicalMemoryUnsafe
 .text.svcUnmapPhysicalMemoryUnsafe
                0x0000000000004e8c        0x8 E:/SmashProjects/EveryoneHasWitchTime/code-mod-framework/lib/libnx_min/nx/lib\libnx_min.a(svc.o)
                0x0000000000004e8c                svcUnmapPhysicalMemoryUnsafe
 .text.svcSetUnsafeLimit
                0x0000000000004e94        0x8 E:/SmashProjects/EveryoneHasWitchTime/code-mod-framework/lib/libnx_min/nx/lib\libnx_min.a(svc.o)
                0x0000000000004e94                svcSetUnsafeLimit
 .text.svcCreateCodeMemory
                0x0000000000004e9c       0x14 E:/SmashProjects/EveryoneHasWitchTime/code-mod-framework/lib/libnx_min/nx/lib\libnx_min.a(svc.o)
                0x0000000000004e9c                svcCreateCodeMemory
 .text.svcControlCodeMemory
                0x0000000000004eb0        0x8 E:/SmashProjects/EveryoneHasWitchTime/code-mod-framework/lib/libnx_min/nx/lib\libnx_min.a(svc.o)
                0x0000000000004eb0                svcControlCodeMemory
 .text.svcReadWriteRegister
                0x0000000000004eb8       0x14 E:/SmashProjects/EveryoneHasWitchTime/code-mod-framework/lib/libnx_min/nx/lib\libnx_min.a(svc.o)
                0x0000000000004eb8                svcReadWriteRegister
 .text.svcCreateSharedMemory
                0x0000000000004ecc       0x14 E:/SmashProjects/EveryoneHasWitchTime/code-mod-framework/lib/libnx_min/nx/lib\libnx_min.a(svc.o)
                0x0000000000004ecc                svcCreateSharedMemory
 .text.svcMapTransferMemory
                0x0000000000004ee0        0x8 E:/SmashProjects/EveryoneHasWitchTime/code-mod-framework/lib/libnx_min/nx/lib\libnx_min.a(svc.o)
                0x0000000000004ee0                svcMapTransferMemory
 .text.svcUnmapTransferMemory
                0x0000000000004ee8        0x8 E:/SmashProjects/EveryoneHasWitchTime/code-mod-framework/lib/libnx_min/nx/lib\libnx_min.a(svc.o)
                0x0000000000004ee8                svcUnmapTransferMemory
 .text.svcCreateInterruptEvent
                0x0000000000004ef0       0x14 E:/SmashProjects/EveryoneHasWitchTime/code-mod-framework/lib/libnx_min/nx/lib\libnx_min.a(svc.o)
                0x0000000000004ef0                svcCreateInterruptEvent
 .text.svcQueryPhysicalAddress
                0x0000000000004f04       0x18 E:/SmashProjects/EveryoneHasWitchTime/code-mod-framework/lib/libnx_min/nx/lib\libnx_min.a(svc.o)
                0x0000000000004f04                svcQueryPhysicalAddress
 .text.svcQueryIoMapping
                0x0000000000004f1c       0x14 E:/SmashProjects/EveryoneHasWitchTime/code-mod-framework/lib/libnx_min/nx/lib\libnx_min.a(svc.o)
                0x0000000000004f1c                svcQueryIoMapping
 .text.svcCreateDeviceAddressSpace
                0x0000000000004f30       0x14 E:/SmashProjects/EveryoneHasWitchTime/code-mod-framework/lib/libnx_min/nx/lib\libnx_min.a(svc.o)
                0x0000000000004f30                svcCreateDeviceAddressSpace
 .text.svcAttachDeviceAddressSpace
                0x0000000000004f44        0x8 E:/SmashProjects/EveryoneHasWitchTime/code-mod-framework/lib/libnx_min/nx/lib\libnx_min.a(svc.o)
                0x0000000000004f44                svcAttachDeviceAddressSpace
 .text.svcDetachDeviceAddressSpace
                0x0000000000004f4c        0x8 E:/SmashProjects/EveryoneHasWitchTime/code-mod-framework/lib/libnx_min/nx/lib\libnx_min.a(svc.o)
                0x0000000000004f4c                svcDetachDeviceAddressSpace
 .text.svcMapDeviceAddressSpaceByForce
                0x0000000000004f54        0x8 E:/SmashProjects/EveryoneHasWitchTime/code-mod-framework/lib/libnx_min/nx/lib\libnx_min.a(svc.o)
                0x0000000000004f54                svcMapDeviceAddressSpaceByForce
 .text.svcMapDeviceAddressSpaceAligned
                0x0000000000004f5c        0x8 E:/SmashProjects/EveryoneHasWitchTime/code-mod-framework/lib/libnx_min/nx/lib\libnx_min.a(svc.o)
                0x0000000000004f5c                svcMapDeviceAddressSpaceAligned
 .text.svcUnmapDeviceAddressSpace
                0x0000000000004f64        0x8 E:/SmashProjects/EveryoneHasWitchTime/code-mod-framework/lib/libnx_min/nx/lib\libnx_min.a(svc.o)
                0x0000000000004f64                svcUnmapDeviceAddressSpace
 .text.svcDebugActiveProcess
                0x0000000000004f6c       0x14 E:/SmashProjects/EveryoneHasWitchTime/code-mod-framework/lib/libnx_min/nx/lib\libnx_min.a(svc.o)
                0x0000000000004f6c                svcDebugActiveProcess
 .text.svcBreakDebugProcess
                0x0000000000004f80        0x8 E:/SmashProjects/EveryoneHasWitchTime/code-mod-framework/lib/libnx_min/nx/lib\libnx_min.a(svc.o)
                0x0000000000004f80                svcBreakDebugProcess
 .text.svcTerminateDebugProcess
                0x0000000000004f88        0x8 E:/SmashProjects/EveryoneHasWitchTime/code-mod-framework/lib/libnx_min/nx/lib\libnx_min.a(svc.o)
                0x0000000000004f88                svcTerminateDebugProcess
 .text.svcGetDebugEvent
                0x0000000000004f90        0x8 E:/SmashProjects/EveryoneHasWitchTime/code-mod-framework/lib/libnx_min/nx/lib\libnx_min.a(svc.o)
                0x0000000000004f90                svcGetDebugEvent
 .text.svcLegacyContinueDebugEvent
                0x0000000000004f98        0x8 E:/SmashProjects/EveryoneHasWitchTime/code-mod-framework/lib/libnx_min/nx/lib\libnx_min.a(svc.o)
                0x0000000000004f98                svcLegacyContinueDebugEvent
 .text.svcContinueDebugEvent
                0x0000000000004fa0        0x8 E:/SmashProjects/EveryoneHasWitchTime/code-mod-framework/lib/libnx_min/nx/lib\libnx_min.a(svc.o)
                0x0000000000004fa0                svcContinueDebugEvent
 .text.svcGetProcessList
                0x0000000000004fa8       0x14 E:/SmashProjects/EveryoneHasWitchTime/code-mod-framework/lib/libnx_min/nx/lib\libnx_min.a(svc.o)
                0x0000000000004fa8                svcGetProcessList
 .text.svcGetThreadList
                0x0000000000004fbc       0x14 E:/SmashProjects/EveryoneHasWitchTime/code-mod-framework/lib/libnx_min/nx/lib\libnx_min.a(svc.o)
                0x0000000000004fbc                svcGetThreadList
 .text.svcGetDebugThreadContext
                0x0000000000004fd0        0x8 E:/SmashProjects/EveryoneHasWitchTime/code-mod-framework/lib/libnx_min/nx/lib\libnx_min.a(svc.o)
                0x0000000000004fd0                svcGetDebugThreadContext
 .text.svcSetDebugThreadContext
                0x0000000000004fd8        0x8 E:/SmashProjects/EveryoneHasWitchTime/code-mod-framework/lib/libnx_min/nx/lib\libnx_min.a(svc.o)
                0x0000000000004fd8                svcSetDebugThreadContext
 .text.svcQueryDebugProcessMemory
                0x0000000000004fe0       0x14 E:/SmashProjects/EveryoneHasWitchTime/code-mod-framework/lib/libnx_min/nx/lib\libnx_min.a(svc.o)
                0x0000000000004fe0                svcQueryDebugProcessMemory
 .text.svcReadDebugProcessMemory
                0x0000000000004ff4        0x8 E:/SmashProjects/EveryoneHasWitchTime/code-mod-framework/lib/libnx_min/nx/lib\libnx_min.a(svc.o)
                0x0000000000004ff4                svcReadDebugProcessMemory
 .text.svcWriteDebugProcessMemory
                0x0000000000004ffc        0x8 E:/SmashProjects/EveryoneHasWitchTime/code-mod-framework/lib/libnx_min/nx/lib\libnx_min.a(svc.o)
                0x0000000000004ffc                svcWriteDebugProcessMemory
 .text.svcGetDebugThreadParam
                0x0000000000005004       0x18 E:/SmashProjects/EveryoneHasWitchTime/code-mod-framework/lib/libnx_min/nx/lib\libnx_min.a(svc.o)
                0x0000000000005004                svcGetDebugThreadParam
 .text.svcGetSystemInfo
                0x000000000000501c       0x14 E:/SmashProjects/EveryoneHasWitchTime/code-mod-framework/lib/libnx_min/nx/lib\libnx_min.a(svc.o)
                0x000000000000501c                svcGetSystemInfo
 .text.svcCreatePort
                0x0000000000005030       0x18 E:/SmashProjects/EveryoneHasWitchTime/code-mod-framework/lib/libnx_min/nx/lib\libnx_min.a(svc.o)
                0x0000000000005030                svcCreatePort
 .text.svcManageNamedPort
                0x0000000000005048       0x14 E:/SmashProjects/EveryoneHasWitchTime/code-mod-framework/lib/libnx_min/nx/lib\libnx_min.a(svc.o)
                0x0000000000005048                svcManageNamedPort
 .text.svcConnectToPort
                0x000000000000505c       0x14 E:/SmashProjects/EveryoneHasWitchTime/code-mod-framework/lib/libnx_min/nx/lib\libnx_min.a(svc.o)
                0x000000000000505c                svcConnectToPort
 .text.svcSetProcessMemoryPermission
                0x0000000000005070        0x8 E:/SmashProjects/EveryoneHasWitchTime/code-mod-framework/lib/libnx_min/nx/lib\libnx_min.a(svc.o)
                0x0000000000005070                svcSetProcessMemoryPermission
 .text.svcMapProcessMemory
                0x0000000000005078        0x8 E:/SmashProjects/EveryoneHasWitchTime/code-mod-framework/lib/libnx_min/nx/lib\libnx_min.a(svc.o)
                0x0000000000005078                svcMapProcessMemory
 .text.svcUnmapProcessMemory
                0x0000000000005080        0x8 E:/SmashProjects/EveryoneHasWitchTime/code-mod-framework/lib/libnx_min/nx/lib\libnx_min.a(svc.o)
                0x0000000000005080                svcUnmapProcessMemory
 .text.svcQueryProcessMemory
                0x0000000000005088       0x14 E:/SmashProjects/EveryoneHasWitchTime/code-mod-framework/lib/libnx_min/nx/lib\libnx_min.a(svc.o)
                0x0000000000005088                svcQueryProcessMemory
 .text.svcMapProcessCodeMemory
                0x000000000000509c        0x8 E:/SmashProjects/EveryoneHasWitchTime/code-mod-framework/lib/libnx_min/nx/lib\libnx_min.a(svc.o)
                0x000000000000509c                svcMapProcessCodeMemory
 .text.svcUnmapProcessCodeMemory
                0x00000000000050a4        0x8 E:/SmashProjects/EveryoneHasWitchTime/code-mod-framework/lib/libnx_min/nx/lib\libnx_min.a(svc.o)
                0x00000000000050a4                svcUnmapProcessCodeMemory
 .text.svcCreateProcess
                0x00000000000050ac       0x14 E:/SmashProjects/EveryoneHasWitchTime/code-mod-framework/lib/libnx_min/nx/lib\libnx_min.a(svc.o)
                0x00000000000050ac                svcCreateProcess
 .text.svcStartProcess
                0x00000000000050c0        0x8 E:/SmashProjects/EveryoneHasWitchTime/code-mod-framework/lib/libnx_min/nx/lib\libnx_min.a(svc.o)
                0x00000000000050c0                svcStartProcess
 .text.svcTerminateProcess
                0x00000000000050c8        0x8 E:/SmashProjects/EveryoneHasWitchTime/code-mod-framework/lib/libnx_min/nx/lib\libnx_min.a(svc.o)
                0x00000000000050c8                svcTerminateProcess
 .text.svcGetProcessInfo
                0x00000000000050d0       0x14 E:/SmashProjects/EveryoneHasWitchTime/code-mod-framework/lib/libnx_min/nx/lib\libnx_min.a(svc.o)
                0x00000000000050d0                svcGetProcessInfo
 .text.svcCreateResourceLimit
                0x00000000000050e4       0x14 E:/SmashProjects/EveryoneHasWitchTime/code-mod-framework/lib/libnx_min/nx/lib\libnx_min.a(svc.o)
                0x00000000000050e4                svcCreateResourceLimit
 .text.svcSetResourceLimitLimitValue
                0x00000000000050f8        0x8 E:/SmashProjects/EveryoneHasWitchTime/code-mod-framework/lib/libnx_min/nx/lib\libnx_min.a(svc.o)
                0x00000000000050f8                svcSetResourceLimitLimitValue
 .text.svcCallSecureMonitor
                0x0000000000005100       0x34 E:/SmashProjects/EveryoneHasWitchTime/code-mod-framework/lib/libnx_min/nx/lib\libnx_min.a(svc.o)
                0x0000000000005100                svcCallSecureMonitor
 .text.__aarch64_read_tp
                0x0000000000005134        0xc E:/SmashProjects/EveryoneHasWitchTime/code-mod-framework/lib/libnx_min/nx/lib\libnx_min.a(readtp.o)
                0x0000000000005134                __aarch64_read_tp
 .text._GetRegionFromInfo.isra.1
                0x0000000000005140       0x7c E:/SmashProjects/EveryoneHasWitchTime/code-mod-framework/lib/libnx_min/nx/lib\libnx_min.a(virtmem.o)
 *fill*         0x00000000000051bc        0x4 
 .text.virtmemSetup
                0x00000000000051c0      0x114 E:/SmashProjects/EveryoneHasWitchTime/code-mod-framework/lib/libnx_min/nx/lib\libnx_min.a(virtmem.o)
                0x00000000000051c0                virtmemSetup
 *fill*         0x00000000000052d4        0xc 
 .text.virtmemReserve
                0x00000000000052e0      0x13c E:/SmashProjects/EveryoneHasWitchTime/code-mod-framework/lib/libnx_min/nx/lib\libnx_min.a(virtmem.o)
                0x00000000000052e0                virtmemReserve
 *fill*         0x000000000000541c        0x4 
 .text.virtmemFree
                0x0000000000005420        0x4 E:/SmashProjects/EveryoneHasWitchTime/code-mod-framework/lib/libnx_min/nx/lib\libnx_min.a(virtmem.o)
                0x0000000000005420                virtmemFree
 *fill*         0x0000000000005424        0xc 
 .text.virtmemReserveStack
                0x0000000000005430       0xc8 E:/SmashProjects/EveryoneHasWitchTime/code-mod-framework/lib/libnx_min/nx/lib\libnx_min.a(virtmem.o)
                0x0000000000005430                virtmemReserveStack
 *fill*         0x00000000000054f8        0x8 
 .text.virtmemFreeStack
                0x0000000000005500        0x4 E:/SmashProjects/EveryoneHasWitchTime/code-mod-framework/lib/libnx_min/nx/lib\libnx_min.a(virtmem.o)
                0x0000000000005500                virtmemFreeStack
 *fill*         0x0000000000005504        0xc 
 .text.mutexLock
                0x0000000000005510       0x8c E:/SmashProjects/EveryoneHasWitchTime/code-mod-framework/lib/libnx_min/nx/lib\libnx_min.a(mutex.o)
                0x0000000000005510                mutexLock
 *fill*         0x000000000000559c        0x4 
 .text.mutexTryLock
                0x00000000000055a0       0x34 E:/SmashProjects/EveryoneHasWitchTime/code-mod-framework/lib/libnx_min/nx/lib\libnx_min.a(mutex.o)
                0x00000000000055a0                mutexTryLock
 *fill*         0x00000000000055d4        0xc 
 .text.mutexUnlock
                0x00000000000055e0       0x30 E:/SmashProjects/EveryoneHasWitchTime/code-mod-framework/lib/libnx_min/nx/lib\libnx_min.a(mutex.o)
                0x00000000000055e0                mutexUnlock
 .text.rmutexLock
                0x0000000000005610       0x4c E:/SmashProjects/EveryoneHasWitchTime/code-mod-framework/lib/libnx_min/nx/lib\libnx_min.a(mutex.o)
                0x0000000000005610                rmutexLock
 *fill*         0x000000000000565c        0x4 
 .text.rmutexTryLock
                0x0000000000005660       0x5c E:/SmashProjects/EveryoneHasWitchTime/code-mod-framework/lib/libnx_min/nx/lib\libnx_min.a(mutex.o)
                0x0000000000005660                rmutexTryLock
 *fill*         0x00000000000056bc        0x4 
 .text.rmutexUnlock
                0x00000000000056c0       0x1c E:/SmashProjects/EveryoneHasWitchTime/code-mod-framework/lib/libnx_min/nx/lib\libnx_min.a(mutex.o)
                0x00000000000056c0                rmutexUnlock
 *fill*         0x00000000000056dc        0x4 
 .text.ipcPrepareHeader
                0x00000000000056e0      0x220 E:/SmashProjects/EveryoneHasWitchTime/code-mod-framework/lib/libnx_min/nx/lib\libnx_min.a(fs.o)
 .text.ipcParse
                0x0000000000005900      0x22c E:/SmashProjects/EveryoneHasWitchTime/code-mod-framework/lib/libnx_min/nx/lib\libnx_min.a(fs.o)
 *fill*         0x0000000000005b2c        0x4 
 .text.serviceIpcParse
                0x0000000000005b30       0xb0 E:/SmashProjects/EveryoneHasWitchTime/code-mod-framework/lib/libnx_min/nx/lib\libnx_min.a(fs.o)
 .text.ipcCloseObjectById
                0x0000000000005be0       0x34 E:/SmashProjects/EveryoneHasWitchTime/code-mod-framework/lib/libnx_min/nx/lib\libnx_min.a(fs.o)
 *fill*         0x0000000000005c14        0xc 
 .text._fsDeviceOperatorCheckInserted
                0x0000000000005c20      0x19c E:/SmashProjects/EveryoneHasWitchTime/code-mod-framework/lib/libnx_min/nx/lib\libnx_min.a(fs.o)
 *fill*         0x0000000000005dbc        0x4 
 .text.fsFsQueryEntry.part.12
                0x0000000000005dc0      0x274 E:/SmashProjects/EveryoneHasWitchTime/code-mod-framework/lib/libnx_min/nx/lib\libnx_min.a(fs.o)
 *fill*         0x0000000000006034        0xc 
 .text.fsInitialize
                0x0000000000006040      0x200 E:/SmashProjects/EveryoneHasWitchTime/code-mod-framework/lib/libnx_min/nx/lib\libnx_min.a(fs.o)
                0x0000000000006040                fsInitialize
 .text.fsExit   0x0000000000006240       0x9c E:/SmashProjects/EveryoneHasWitchTime/code-mod-framework/lib/libnx_min/nx/lib\libnx_min.a(fs.o)
                0x0000000000006240                fsExit
 *fill*         0x00000000000062dc        0x4 
 .text.fsGetServiceSession
                0x00000000000062e0        0xc E:/SmashProjects/EveryoneHasWitchTime/code-mod-framework/lib/libnx_min/nx/lib\libnx_min.a(fs.o)
                0x00000000000062e0                fsGetServiceSession
 *fill*         0x00000000000062ec        0x4 
 .text.fsOpenBisStorage
                0x00000000000062f0      0x1ec E:/SmashProjects/EveryoneHasWitchTime/code-mod-framework/lib/libnx_min/nx/lib\libnx_min.a(fs.o)
                0x00000000000062f0                fsOpenBisStorage
 *fill*         0x00000000000064dc        0x4 
 .text.fsOpenBisFileSystem
                0x00000000000064e0      0x170 E:/SmashProjects/EveryoneHasWitchTime/code-mod-framework/lib/libnx_min/nx/lib\libnx_min.a(fs.o)
                0x00000000000064e0                fsOpenBisFileSystem
 .text.fsMountSdcard
                0x0000000000006650      0x1cc E:/SmashProjects/EveryoneHasWitchTime/code-mod-framework/lib/libnx_min/nx/lib\libnx_min.a(fs.o)
                0x0000000000006650                fsMountSdcard
 *fill*         0x000000000000681c        0x4 
 .text.fsMountSaveData
                0x0000000000006820      0x208 E:/SmashProjects/EveryoneHasWitchTime/code-mod-framework/lib/libnx_min/nx/lib\libnx_min.a(fs.o)
                0x0000000000006820                fsMountSaveData
 *fill*         0x0000000000006a28        0x8 
 .text.fsMountSystemSaveData
                0x0000000000006a30      0x208 E:/SmashProjects/EveryoneHasWitchTime/code-mod-framework/lib/libnx_min/nx/lib\libnx_min.a(fs.o)
                0x0000000000006a30                fsMountSystemSaveData
 *fill*         0x0000000000006c38        0x8 
 .text.fsOpenSaveDataIterator
                0x0000000000006c40      0x1e0 E:/SmashProjects/EveryoneHasWitchTime/code-mod-framework/lib/libnx_min/nx/lib\libnx_min.a(fs.o)
                0x0000000000006c40                fsOpenSaveDataIterator
 .text.fsOpenContentStorageFileSystem
                0x0000000000006e20      0x1d4 E:/SmashProjects/EveryoneHasWitchTime/code-mod-framework/lib/libnx_min/nx/lib\libnx_min.a(fs.o)
                0x0000000000006e20                fsOpenContentStorageFileSystem
 *fill*         0x0000000000006ff4        0xc 
 .text.fsOpenDataStorageByCurrentProcess
                0x0000000000007000      0x1cc E:/SmashProjects/EveryoneHasWitchTime/code-mod-framework/lib/libnx_min/nx/lib\libnx_min.a(fs.o)
                0x0000000000007000                fsOpenDataStorageByCurrentProcess
 *fill*         0x00000000000071cc        0x4 
 .text.fsOpenDataStorageByDataId
                0x00000000000071d0      0x200 E:/SmashProjects/EveryoneHasWitchTime/code-mod-framework/lib/libnx_min/nx/lib\libnx_min.a(fs.o)
                0x00000000000071d0                fsOpenDataStorageByDataId
 .text.fsOpenDeviceOperator
                0x00000000000073d0      0x1cc E:/SmashProjects/EveryoneHasWitchTime/code-mod-framework/lib/libnx_min/nx/lib\libnx_min.a(fs.o)
                0x00000000000073d0                fsOpenDeviceOperator
 *fill*         0x000000000000759c        0x4 
 .text.fsOpenSdCardDetectionEventNotifier
                0x00000000000075a0      0x1cc E:/SmashProjects/EveryoneHasWitchTime/code-mod-framework/lib/libnx_min/nx/lib\libnx_min.a(fs.o)
                0x00000000000075a0                fsOpenSdCardDetectionEventNotifier
 *fill*         0x000000000000776c        0x4 
 .text.fsGetRightsIdByPath
                0x0000000000007770      0x174 E:/SmashProjects/EveryoneHasWitchTime/code-mod-framework/lib/libnx_min/nx/lib\libnx_min.a(fs.o)
                0x0000000000007770                fsGetRightsIdByPath
 *fill*         0x00000000000078e4        0xc 
 .text.fsGetRightsIdAndKeyGenerationByPath
                0x00000000000078f0      0x184 E:/SmashProjects/EveryoneHasWitchTime/code-mod-framework/lib/libnx_min/nx/lib\libnx_min.a(fs.o)
                0x00000000000078f0                fsGetRightsIdAndKeyGenerationByPath
 *fill*         0x0000000000007a74        0xc 
 .text.fsIsExFatSupported
                0x0000000000007a80      0x138 E:/SmashProjects/EveryoneHasWitchTime/code-mod-framework/lib/libnx_min/nx/lib\libnx_min.a(fs.o)
                0x0000000000007a80                fsIsExFatSupported
 *fill*         0x0000000000007bb8        0x8 
 .text.fsMount_SaveData
                0x0000000000007bc0       0x3c E:/SmashProjects/EveryoneHasWitchTime/code-mod-framework/lib/libnx_min/nx/lib\libnx_min.a(fs.o)
                0x0000000000007bc0                fsMount_SaveData
 *fill*         0x0000000000007bfc        0x4 
 .text.fsMount_SystemSaveData
                0x0000000000007c00       0x30 E:/SmashProjects/EveryoneHasWitchTime/code-mod-framework/lib/libnx_min/nx/lib\libnx_min.a(fs.o)
                0x0000000000007c00                fsMount_SystemSaveData
 .text.fsOpenFileSystemWithId
                0x0000000000007c30      0x248 E:/SmashProjects/EveryoneHasWitchTime/code-mod-framework/lib/libnx_min/nx/lib\libnx_min.a(fs.o)
                0x0000000000007c30                fsOpenFileSystemWithId
 *fill*         0x0000000000007e78        0x8 
 .text.fsOpenFileSystem
                0x0000000000007e80       0x10 E:/SmashProjects/EveryoneHasWitchTime/code-mod-framework/lib/libnx_min/nx/lib\libnx_min.a(fs.o)
                0x0000000000007e80                fsOpenFileSystem
 .text.fsOpenFileSystemWithPatch
                0x0000000000007e90      0x184 E:/SmashProjects/EveryoneHasWitchTime/code-mod-framework/lib/libnx_min/nx/lib\libnx_min.a(fs.o)
                0x0000000000007e90                fsOpenFileSystemWithPatch
 *fill*         0x0000000000008014        0xc 
 .text.fsFsCreateFile
                0x0000000000008020      0x1a4 E:/SmashProjects/EveryoneHasWitchTime/code-mod-framework/lib/libnx_min/nx/lib\libnx_min.a(fs.o)
                0x0000000000008020                fsFsCreateFile
 *fill*         0x00000000000081c4        0xc 
 .text.fsFsDeleteFile
                0x00000000000081d0      0x19c E:/SmashProjects/EveryoneHasWitchTime/code-mod-framework/lib/libnx_min/nx/lib\libnx_min.a(fs.o)
                0x00000000000081d0                fsFsDeleteFile
 *fill*         0x000000000000836c        0x4 
 .text.fsFsCreateDirectory
                0x0000000000008370      0x19c E:/SmashProjects/EveryoneHasWitchTime/code-mod-framework/lib/libnx_min/nx/lib\libnx_min.a(fs.o)
                0x0000000000008370                fsFsCreateDirectory
 *fill*         0x000000000000850c        0x4 
 .text.fsFsDeleteDirectory
                0x0000000000008510      0x19c E:/SmashProjects/EveryoneHasWitchTime/code-mod-framework/lib/libnx_min/nx/lib\libnx_min.a(fs.o)
                0x0000000000008510                fsFsDeleteDirectory
 *fill*         0x00000000000086ac        0x4 
 .text.fsFsDeleteDirectoryRecursively
                0x00000000000086b0      0x19c E:/SmashProjects/EveryoneHasWitchTime/code-mod-framework/lib/libnx_min/nx/lib\libnx_min.a(fs.o)
                0x00000000000086b0                fsFsDeleteDirectoryRecursively
 *fill*         0x000000000000884c        0x4 
 .text.fsFsRenameFile
                0x0000000000008850      0x214 E:/SmashProjects/EveryoneHasWitchTime/code-mod-framework/lib/libnx_min/nx/lib\libnx_min.a(fs.o)
                0x0000000000008850                fsFsRenameFile
 *fill*         0x0000000000008a64        0xc 
 .text.fsFsRenameDirectory
                0x0000000000008a70      0x214 E:/SmashProjects/EveryoneHasWitchTime/code-mod-framework/lib/libnx_min/nx/lib\libnx_min.a(fs.o)
                0x0000000000008a70                fsFsRenameDirectory
 *fill*         0x0000000000008c84        0xc 
 .text.fsFsGetEntryType
                0x0000000000008c90      0x1b0 E:/SmashProjects/EveryoneHasWitchTime/code-mod-framework/lib/libnx_min/nx/lib\libnx_min.a(fs.o)
                0x0000000000008c90                fsFsGetEntryType
 .text.fsFsOpenFile
                0x0000000000008e40      0x1e4 E:/SmashProjects/EveryoneHasWitchTime/code-mod-framework/lib/libnx_min/nx/lib\libnx_min.a(fs.o)
                0x0000000000008e40                fsFsOpenFile
 *fill*         0x0000000000009024        0xc 
 .text.fsFsOpenDirectory
                0x0000000000009030      0x1f8 E:/SmashProjects/EveryoneHasWitchTime/code-mod-framework/lib/libnx_min/nx/lib\libnx_min.a(fs.o)
                0x0000000000009030                fsFsOpenDirectory
 *fill*         0x0000000000009228        0x8 
 .text.fsFsCommit
                0x0000000000009230      0x17c E:/SmashProjects/EveryoneHasWitchTime/code-mod-framework/lib/libnx_min/nx/lib\libnx_min.a(fs.o)
                0x0000000000009230                fsFsCommit
 *fill*         0x00000000000093ac        0x4 
 .text.fsFsGetFreeSpace
                0x00000000000093b0      0x1b0 E:/SmashProjects/EveryoneHasWitchTime/code-mod-framework/lib/libnx_min/nx/lib\libnx_min.a(fs.o)
                0x00000000000093b0                fsFsGetFreeSpace
 .text.fsFsGetTotalSpace
                0x0000000000009560      0x1b0 E:/SmashProjects/EveryoneHasWitchTime/code-mod-framework/lib/libnx_min/nx/lib\libnx_min.a(fs.o)
                0x0000000000009560                fsFsGetTotalSpace
 .text.fsFsCleanDirectoryRecursively
                0x0000000000009710      0x140 E:/SmashProjects/EveryoneHasWitchTime/code-mod-framework/lib/libnx_min/nx/lib\libnx_min.a(fs.o)
                0x0000000000009710                fsFsCleanDirectoryRecursively
 .text.fsFsGetFileTimeStampRaw
                0x0000000000009850      0x194 E:/SmashProjects/EveryoneHasWitchTime/code-mod-framework/lib/libnx_min/nx/lib\libnx_min.a(fs.o)
                0x0000000000009850                fsFsGetFileTimeStampRaw
 *fill*         0x00000000000099e4        0xc 
 .text.fsFsQueryEntry
                0x00000000000099f0       0x60 E:/SmashProjects/EveryoneHasWitchTime/code-mod-framework/lib/libnx_min/nx/lib\libnx_min.a(fs.o)
                0x00000000000099f0                fsFsQueryEntry
 .text.fsFsSetArchiveBit
                0x0000000000009a50       0x1c E:/SmashProjects/EveryoneHasWitchTime/code-mod-framework/lib/libnx_min/nx/lib\libnx_min.a(fs.o)
                0x0000000000009a50                fsFsSetArchiveBit
 *fill*         0x0000000000009a6c        0x4 
 .text.fsFsClose
                0x0000000000009a70       0x6c E:/SmashProjects/EveryoneHasWitchTime/code-mod-framework/lib/libnx_min/nx/lib\libnx_min.a(fs.o)
                0x0000000000009a70                fsFsClose
 *fill*         0x0000000000009adc        0x4 
 .text.fsFileRead
                0x0000000000009ae0      0x1f8 E:/SmashProjects/EveryoneHasWitchTime/code-mod-framework/lib/libnx_min/nx/lib\libnx_min.a(fs.o)
                0x0000000000009ae0                fsFileRead
 *fill*         0x0000000000009cd8        0x8 
 .text.fsFileWrite
                0x0000000000009ce0      0x1cc E:/SmashProjects/EveryoneHasWitchTime/code-mod-framework/lib/libnx_min/nx/lib\libnx_min.a(fs.o)
                0x0000000000009ce0                fsFileWrite
 *fill*         0x0000000000009eac        0x4 
 .text.fsFileFlush
                0x0000000000009eb0      0x17c E:/SmashProjects/EveryoneHasWitchTime/code-mod-framework/lib/libnx_min/nx/lib\libnx_min.a(fs.o)
                0x0000000000009eb0                fsFileFlush
 *fill*         0x000000000000a02c        0x4 
 .text.fsFileSetSize
                0x000000000000a030      0x18c E:/SmashProjects/EveryoneHasWitchTime/code-mod-framework/lib/libnx_min/nx/lib\libnx_min.a(fs.o)
                0x000000000000a030                fsFileSetSize
 *fill*         0x000000000000a1bc        0x4 
 .text.fsFileGetSize
                0x000000000000a1c0      0x194 E:/SmashProjects/EveryoneHasWitchTime/code-mod-framework/lib/libnx_min/nx/lib\libnx_min.a(fs.o)
                0x000000000000a1c0                fsFileGetSize
 *fill*         0x000000000000a354        0xc 
 .text.fsFileOperateRange
                0x000000000000a360      0x180 E:/SmashProjects/EveryoneHasWitchTime/code-mod-framework/lib/libnx_min/nx/lib\libnx_min.a(fs.o)
                0x000000000000a360                fsFileOperateRange
 .text.fsFileClose
                0x000000000000a4e0       0x6c E:/SmashProjects/EveryoneHasWitchTime/code-mod-framework/lib/libnx_min/nx/lib\libnx_min.a(fs.o)
                0x000000000000a4e0                fsFileClose
 *fill*         0x000000000000a54c        0x4 
 .text.fsDirClose
                0x000000000000a550       0x6c E:/SmashProjects/EveryoneHasWitchTime/code-mod-framework/lib/libnx_min/nx/lib\libnx_min.a(fs.o)
                0x000000000000a550                fsDirClose
 *fill*         0x000000000000a5bc        0x4 
 .text.fsDirRead
                0x000000000000a5c0      0x1ec E:/SmashProjects/EveryoneHasWitchTime/code-mod-framework/lib/libnx_min/nx/lib\libnx_min.a(fs.o)
                0x000000000000a5c0                fsDirRead
 *fill*         0x000000000000a7ac        0x4 
 .text.fsDirGetEntryCount
                0x000000000000a7b0      0x198 E:/SmashProjects/EveryoneHasWitchTime/code-mod-framework/lib/libnx_min/nx/lib\libnx_min.a(fs.o)
                0x000000000000a7b0                fsDirGetEntryCount
 *fill*         0x000000000000a948        0x8 
 .text.fsStorageRead
                0x000000000000a950      0x1d0 E:/SmashProjects/EveryoneHasWitchTime/code-mod-framework/lib/libnx_min/nx/lib\libnx_min.a(fs.o)
                0x000000000000a950                fsStorageRead
 .text.fsStorageWrite
                0x000000000000ab20      0x1d0 E:/SmashProjects/EveryoneHasWitchTime/code-mod-framework/lib/libnx_min/nx/lib\libnx_min.a(fs.o)
                0x000000000000ab20                fsStorageWrite
 .text.fsStorageFlush
                0x000000000000acf0      0x17c E:/SmashProjects/EveryoneHasWitchTime/code-mod-framework/lib/libnx_min/nx/lib\libnx_min.a(fs.o)
                0x000000000000acf0                fsStorageFlush
 *fill*         0x000000000000ae6c        0x4 
 .text.fsStorageSetSize
                0x000000000000ae70      0x18c E:/SmashProjects/EveryoneHasWitchTime/code-mod-framework/lib/libnx_min/nx/lib\libnx_min.a(fs.o)
                0x000000000000ae70                fsStorageSetSize
 *fill*         0x000000000000affc        0x4 
 .text.fsStorageGetSize
                0x000000000000b000      0x194 E:/SmashProjects/EveryoneHasWitchTime/code-mod-framework/lib/libnx_min/nx/lib\libnx_min.a(fs.o)
                0x000000000000b000                fsStorageGetSize
 *fill*         0x000000000000b194        0xc 
 .text.fsStorageOperateRange
                0x000000000000b1a0      0x180 E:/SmashProjects/EveryoneHasWitchTime/code-mod-framework/lib/libnx_min/nx/lib\libnx_min.a(fs.o)
                0x000000000000b1a0                fsStorageOperateRange
 .text.fsStorageClose
                0x000000000000b320       0x6c E:/SmashProjects/EveryoneHasWitchTime/code-mod-framework/lib/libnx_min/nx/lib\libnx_min.a(fs.o)
                0x000000000000b320                fsStorageClose
 *fill*         0x000000000000b38c        0x4 
 .text.fsSaveDataIteratorRead
                0x000000000000b390      0x1d0 E:/SmashProjects/EveryoneHasWitchTime/code-mod-framework/lib/libnx_min/nx/lib\libnx_min.a(fs.o)
                0x000000000000b390                fsSaveDataIteratorRead
 .text.fsSaveDataIteratorClose
                0x000000000000b560       0x6c E:/SmashProjects/EveryoneHasWitchTime/code-mod-framework/lib/libnx_min/nx/lib\libnx_min.a(fs.o)
                0x000000000000b560                fsSaveDataIteratorClose
 *fill*         0x000000000000b5cc        0x4 
 .text.fsEventNotifierGetEventHandle
                0x000000000000b5d0      0x188 E:/SmashProjects/EveryoneHasWitchTime/code-mod-framework/lib/libnx_min/nx/lib\libnx_min.a(fs.o)
                0x000000000000b5d0                fsEventNotifierGetEventHandle
 *fill*         0x000000000000b758        0x8 
 .text.fsEventNotifierClose
                0x000000000000b760       0x6c E:/SmashProjects/EveryoneHasWitchTime/code-mod-framework/lib/libnx_min/nx/lib\libnx_min.a(fs.o)
                0x000000000000b760                fsEventNotifierClose
 *fill*         0x000000000000b7cc        0x4 
 .text.fsDeviceOperatorIsSdCardInserted
                0x000000000000b7d0        0xc E:/SmashProjects/EveryoneHasWitchTime/code-mod-framework/lib/libnx_min/nx/lib\libnx_min.a(fs.o)
                0x000000000000b7d0                fsDeviceOperatorIsSdCardInserted
 *fill*         0x000000000000b7dc        0x4 
 .text.fsDeviceOperatorIsGameCardInserted
                0x000000000000b7e0        0xc E:/SmashProjects/EveryoneHasWitchTime/code-mod-framework/lib/libnx_min/nx/lib\libnx_min.a(fs.o)
                0x000000000000b7e0                fsDeviceOperatorIsGameCardInserted
 *fill*         0x000000000000b7ec        0x4 
 .text.fsDeviceOperatorGetGameCardHandle
                0x000000000000b7f0      0x190 E:/SmashProjects/EveryoneHasWitchTime/code-mod-framework/lib/libnx_min/nx/lib\libnx_min.a(fs.o)
                0x000000000000b7f0                fsDeviceOperatorGetGameCardHandle
 .text.fsDeviceOperatorGetGameCardAttribute
                0x000000000000b980      0x18c E:/SmashProjects/EveryoneHasWitchTime/code-mod-framework/lib/libnx_min/nx/lib\libnx_min.a(fs.o)
                0x000000000000b980                fsDeviceOperatorGetGameCardAttribute
 *fill*         0x000000000000bb0c        0x4 
 .text.fsDeviceOperatorClose
                0x000000000000bb10       0x6c E:/SmashProjects/EveryoneHasWitchTime/code-mod-framework/lib/libnx_min/nx/lib\libnx_min.a(fs.o)
                0x000000000000bb10                fsDeviceOperatorClose
 *fill*         0x000000000000bb7c        0x4 
 .text.ipcCloseObjectById
                0x000000000000bb80       0x34 E:/SmashProjects/EveryoneHasWitchTime/code-mod-framework/lib/libnx_min/nx/lib\libnx_min.a(set.o)
 *fill*         0x000000000000bbb4        0xc 
 .text._setMakeLanguageCode
                0x000000000000bbc0       0xf4 E:/SmashProjects/EveryoneHasWitchTime/code-mod-framework/lib/libnx_min/nx/lib\libnx_min.a(set.o)
 *fill*         0x000000000000bcb4        0xc 
 .text._setsysGetFirmwareVersionImpl
                0x000000000000bcc0      0x1d4 E:/SmashProjects/EveryoneHasWitchTime/code-mod-framework/lib/libnx_min/nx/lib\libnx_min.a(set.o)
 *fill*         0x000000000000be94        0xc 
 .text.setInitialize
                0x000000000000bea0       0x44 E:/SmashProjects/EveryoneHasWitchTime/code-mod-framework/lib/libnx_min/nx/lib\libnx_min.a(set.o)
                0x000000000000bea0                setInitialize
 *fill*         0x000000000000bee4        0xc 
 .text.setExit  0x000000000000bef0       0x9c E:/SmashProjects/EveryoneHasWitchTime/code-mod-framework/lib/libnx_min/nx/lib\libnx_min.a(set.o)
                0x000000000000bef0                setExit
 *fill*         0x000000000000bf8c        0x4 
 .text.setsysInitialize
                0x000000000000bf90       0x3c E:/SmashProjects/EveryoneHasWitchTime/code-mod-framework/lib/libnx_min/nx/lib\libnx_min.a(set.o)
                0x000000000000bf90                setsysInitialize
 *fill*         0x000000000000bfcc        0x4 
 .text.setsysExit
                0x000000000000bfd0       0x9c E:/SmashProjects/EveryoneHasWitchTime/code-mod-framework/lib/libnx_min/nx/lib\libnx_min.a(set.o)
                0x000000000000bfd0                setsysExit
 *fill*         0x000000000000c06c        0x4 
 .text.setGetLanguageCode
                0x000000000000c070       0xec E:/SmashProjects/EveryoneHasWitchTime/code-mod-framework/lib/libnx_min/nx/lib\libnx_min.a(set.o)
                0x000000000000c070                setGetLanguageCode
 *fill*         0x000000000000c15c        0x4 
 .text.setGetSystemLanguage
                0x000000000000c160        0x4 E:/SmashProjects/EveryoneHasWitchTime/code-mod-framework/lib/libnx_min/nx/lib\libnx_min.a(set.o)
                0x000000000000c160                setGetSystemLanguage
 *fill*         0x000000000000c164        0xc 
 .text.setGetAvailableLanguageCodeCount
                0x000000000000c170      0x10c E:/SmashProjects/EveryoneHasWitchTime/code-mod-framework/lib/libnx_min/nx/lib\libnx_min.a(set.o)
                0x000000000000c170                setGetAvailableLanguageCodeCount
 *fill*         0x000000000000c27c        0x4 
 .text.setGetAvailableLanguageCodes
                0x000000000000c280      0x1b4 E:/SmashProjects/EveryoneHasWitchTime/code-mod-framework/lib/libnx_min/nx/lib\libnx_min.a(set.o)
                0x000000000000c280                setGetAvailableLanguageCodes
 *fill*         0x000000000000c434        0xc 
 .text.setInitializeLanguageCodesCache
                0x000000000000c440       0x70 E:/SmashProjects/EveryoneHasWitchTime/code-mod-framework/lib/libnx_min/nx/lib\libnx_min.a(set.o)
 .text.setMakeLanguage
                0x000000000000c4b0       0x8c E:/SmashProjects/EveryoneHasWitchTime/code-mod-framework/lib/libnx_min/nx/lib\libnx_min.a(set.o)
                0x000000000000c4b0                setMakeLanguage
 *fill*         0x000000000000c53c        0x4 
 .text.setMakeLanguageCode
                0x000000000000c540       0x80 E:/SmashProjects/EveryoneHasWitchTime/code-mod-framework/lib/libnx_min/nx/lib\libnx_min.a(set.o)
                0x000000000000c540                setMakeLanguageCode
 .text.setGetRegionCode
                0x000000000000c5c0       0xf0 E:/SmashProjects/EveryoneHasWitchTime/code-mod-framework/lib/libnx_min/nx/lib\libnx_min.a(set.o)
                0x000000000000c5c0                setGetRegionCode
 .text.setsysGetColorSetId
                0x000000000000c6b0       0xe4 E:/SmashProjects/EveryoneHasWitchTime/code-mod-framework/lib/libnx_min/nx/lib\libnx_min.a(set.o)
                0x000000000000c6b0                setsysGetColorSetId
 *fill*         0x000000000000c794        0xc 
 .text.setsysSetColorSetId
                0x000000000000c7a0       0xd0 E:/SmashProjects/EveryoneHasWitchTime/code-mod-framework/lib/libnx_min/nx/lib\libnx_min.a(set.o)
                0x000000000000c7a0                setsysSetColorSetId
 .text.setsysGetSettingsItemValue
                0x000000000000c870      0x19c E:/SmashProjects/EveryoneHasWitchTime/code-mod-framework/lib/libnx_min/nx/lib\libnx_min.a(set.o)
                0x000000000000c870                setsysGetSettingsItemValue
 *fill*         0x000000000000ca0c        0x4 
 .text.setsysGetSettingsItemValueSize
                0x000000000000ca10      0x198 E:/SmashProjects/EveryoneHasWitchTime/code-mod-framework/lib/libnx_min/nx/lib\libnx_min.a(set.o)
                0x000000000000ca10                setsysGetSettingsItemValueSize
 *fill*         0x000000000000cba8        0x8 
 .text.setsysGetSerialNumber
                0x000000000000cbb0      0x108 E:/SmashProjects/EveryoneHasWitchTime/code-mod-framework/lib/libnx_min/nx/lib\libnx_min.a(set.o)
                0x000000000000cbb0                setsysGetSerialNumber
 *fill*         0x000000000000ccb8        0x8 
 .text.setsysGetFlag
                0x000000000000ccc0       0xec E:/SmashProjects/EveryoneHasWitchTime/code-mod-framework/lib/libnx_min/nx/lib\libnx_min.a(set.o)
                0x000000000000ccc0                setsysGetFlag
 *fill*         0x000000000000cdac        0x4 
 .text.setsysSetFlag
                0x000000000000cdb0       0xd0 E:/SmashProjects/EveryoneHasWitchTime/code-mod-framework/lib/libnx_min/nx/lib\libnx_min.a(set.o)
                0x000000000000cdb0                setsysSetFlag
 .text.setsysGetFirmwareVersion
                0x000000000000ce80       0x44 E:/SmashProjects/EveryoneHasWitchTime/code-mod-framework/lib/libnx_min/nx/lib\libnx_min.a(set.o)
                0x000000000000ce80                setsysGetFirmwareVersion
 *fill*         0x000000000000cec4        0xc 
 .text.setsysBindFatalDirtyFlagEvent
                0x000000000000ced0      0x13c E:/SmashProjects/EveryoneHasWitchTime/code-mod-framework/lib/libnx_min/nx/lib\libnx_min.a(set.o)
                0x000000000000ced0                setsysBindFatalDirtyFlagEvent
 *fill*         0x000000000000d00c        0x4 
 .text.setsysGetFatalDirtyFlags
                0x000000000000d010       0xf8 E:/SmashProjects/EveryoneHasWitchTime/code-mod-framework/lib/libnx_min/nx/lib\libnx_min.a(set.o)
                0x000000000000d010                setsysGetFatalDirtyFlags
 *fill*         0x000000000000d108        0x8 
 .text.setsysGetDeviceNickname
                0x000000000000d110       0xf8 E:/SmashProjects/EveryoneHasWitchTime/code-mod-framework/lib/libnx_min/nx/lib\libnx_min.a(set.o)
                0x000000000000d110                setsysGetDeviceNickname
 *fill*         0x000000000000d208        0x8 
 .text.setsysSetDeviceNickname
                0x000000000000d210      0x134 E:/SmashProjects/EveryoneHasWitchTime/code-mod-framework/lib/libnx_min/nx/lib\libnx_min.a(set.o)
                0x000000000000d210                setsysSetDeviceNickname
 *fill*         0x000000000000d344        0xc 
 .text._fatalImpl
                0x000000000000d350      0x140 E:/SmashProjects/EveryoneHasWitchTime/code-mod-framework/lib/libnx_min/nx/lib\libnx_min.a(fatal.o)
 .text.fatalWithType
                0x000000000000d490       0x14 E:/SmashProjects/EveryoneHasWitchTime/code-mod-framework/lib/libnx_min/nx/lib\libnx_min.a(fatal.o)
                0x000000000000d490                fatalWithType
 *fill*         0x000000000000d4a4        0xc 
 .text.fatalSimple
                0x000000000000d4b0       0x14 E:/SmashProjects/EveryoneHasWitchTime/code-mod-framework/lib/libnx_min/nx/lib\libnx_min.a(fatal.o)
                0x000000000000d4b0                fatalSimple
 *fill*         0x000000000000d4c4        0xc 
 .text.fatalWithContext
                0x000000000000d4d0       0x14 E:/SmashProjects/EveryoneHasWitchTime/code-mod-framework/lib/libnx_min/nx/lib\libnx_min.a(fatal.o)
                0x000000000000d4d0                fatalWithContext
 *fill*         0x000000000000d4e4        0xc 
 .text.ipcCloseObjectById
                0x000000000000d4f0       0x34 E:/SmashProjects/EveryoneHasWitchTime/code-mod-framework/lib/libnx_min/nx/lib\libnx_min.a(sm.o)
 *fill*         0x000000000000d524        0xc 
 .text.smAddOverrideHandle
                0x000000000000d530       0x44 E:/SmashProjects/EveryoneHasWitchTime/code-mod-framework/lib/libnx_min/nx/lib\libnx_min.a(sm.o)
                0x000000000000d530                smAddOverrideHandle
 *fill*         0x000000000000d574        0xc 
 .text.smGetServiceOverride
                0x000000000000d580       0x60 E:/SmashProjects/EveryoneHasWitchTime/code-mod-framework/lib/libnx_min/nx/lib\libnx_min.a(sm.o)
                0x000000000000d580                smGetServiceOverride
 .text.smHasInitialized
                0x000000000000d5e0       0x14 E:/SmashProjects/EveryoneHasWitchTime/code-mod-framework/lib/libnx_min/nx/lib\libnx_min.a(sm.o)
                0x000000000000d5e0                smHasInitialized
 *fill*         0x000000000000d5f4        0xc 
 .text.smExit   0x000000000000d600       0x9c E:/SmashProjects/EveryoneHasWitchTime/code-mod-framework/lib/libnx_min/nx/lib\libnx_min.a(sm.o)
                0x000000000000d600                smExit
 *fill*         0x000000000000d69c        0x4 
 .text.smGetServiceSession
                0x000000000000d6a0        0xc E:/SmashProjects/EveryoneHasWitchTime/code-mod-framework/lib/libnx_min/nx/lib\libnx_min.a(sm.o)
                0x000000000000d6a0                smGetServiceSession
 *fill*         0x000000000000d6ac        0x4 
 .text.smEncodeName
                0x000000000000d6b0       0x38 E:/SmashProjects/EveryoneHasWitchTime/code-mod-framework/lib/libnx_min/nx/lib\libnx_min.a(sm.o)
                0x000000000000d6b0                smEncodeName
 *fill*         0x000000000000d6e8        0x8 
 .text.smGetServiceOriginal
                0x000000000000d6f0      0x22c E:/SmashProjects/EveryoneHasWitchTime/code-mod-framework/lib/libnx_min/nx/lib\libnx_min.a(sm.o)
                0x000000000000d6f0                smGetServiceOriginal
 *fill*         0x000000000000d91c        0x4 
 .text.smInitialize
                0x000000000000d920      0x27c E:/SmashProjects/EveryoneHasWitchTime/code-mod-framework/lib/libnx_min/nx/lib\libnx_min.a(sm.o)
                0x000000000000d920                smInitialize
 *fill*         0x000000000000db9c        0x4 
 .text.smGetService
                0x000000000000dba0       0x74 E:/SmashProjects/EveryoneHasWitchTime/code-mod-framework/lib/libnx_min/nx/lib\libnx_min.a(sm.o)
                0x000000000000dba0                smGetService
 *fill*         0x000000000000dc14        0xc 
 .text.smRegisterService
                0x000000000000dc20      0x25c E:/SmashProjects/EveryoneHasWitchTime/code-mod-framework/lib/libnx_min/nx/lib\libnx_min.a(sm.o)
                0x000000000000dc20                smRegisterService
 *fill*         0x000000000000de7c        0x4 
 .text.smUnregisterService
                0x000000000000de80      0x1ac E:/SmashProjects/EveryoneHasWitchTime/code-mod-framework/lib/libnx_min/nx/lib\libnx_min.a(sm.o)
                0x000000000000de80                smUnregisterService
 *fill*         0x000000000000e02c        0x4 
 .text._hidGetDeviceHandles.part.7
                0x000000000000e030       0xec E:/SmashProjects/EveryoneHasWitchTime/code-mod-framework/lib/libnx_min/nx/lib\libnx_min.a(hid.o)
 *fill*         0x000000000000e11c        0x4 
 .text.ipcCloseObjectById
                0x000000000000e120       0x34 E:/SmashProjects/EveryoneHasWitchTime/code-mod-framework/lib/libnx_min/nx/lib\libnx_min.a(hid.o)
 *fill*         0x000000000000e154        0xc 
 .text._hidActivateVibrationDevice
                0x000000000000e160       0xc8 E:/SmashProjects/EveryoneHasWitchTime/code-mod-framework/lib/libnx_min/nx/lib\libnx_min.a(hid.o)
 *fill*         0x000000000000e228        0x8 
 .text._hidGetSharedMemoryHandle.constprop.17
                0x000000000000e230      0x124 E:/SmashProjects/EveryoneHasWitchTime/code-mod-framework/lib/libnx_min/nx/lib\libnx_min.a(hid.o)
 *fill*         0x000000000000e354        0xc 
 .text._hidCreateActiveVibrationDeviceList
                0x000000000000e360      0x134 E:/SmashProjects/EveryoneHasWitchTime/code-mod-framework/lib/libnx_min/nx/lib\libnx_min.a(hid.o)
 *fill*         0x000000000000e494        0xc 
 .text._hidCmdWithNoInput
                0x000000000000e4a0      0x100 E:/SmashProjects/EveryoneHasWitchTime/code-mod-framework/lib/libnx_min/nx/lib\libnx_min.a(hid.o)
 .text._hidCreateAppletResource.constprop.16
                0x000000000000e5a0      0x134 E:/SmashProjects/EveryoneHasWitchTime/code-mod-framework/lib/libnx_min/nx/lib\libnx_min.a(hid.o)
 *fill*         0x000000000000e6d4        0xc 
 .text._hidCmdWithInputU32
                0x000000000000e6e0      0x10c E:/SmashProjects/EveryoneHasWitchTime/code-mod-framework/lib/libnx_min/nx/lib\libnx_min.a(hid.o)
 *fill*         0x000000000000e7ec        0x4 
 .text._hidCmdWithInputU64.constprop.18
                0x000000000000e7f0      0x108 E:/SmashProjects/EveryoneHasWitchTime/code-mod-framework/lib/libnx_min/nx/lib\libnx_min.a(hid.o)
 *fill*         0x000000000000e8f8        0x8 
 .text._hidInitializeSevenSixAxisSensor.isra.11.constprop.19
                0x000000000000e900      0x1f8 E:/SmashProjects/EveryoneHasWitchTime/code-mod-framework/lib/libnx_min/nx/lib\libnx_min.a(hid.o)
 *fill*         0x000000000000eaf8        0x8 
 .text.hidReset
                0x000000000000eb00      0x1f8 E:/SmashProjects/EveryoneHasWitchTime/code-mod-framework/lib/libnx_min/nx/lib\libnx_min.a(hid.o)
                0x000000000000eb00                hidReset
 *fill*         0x000000000000ecf8        0x8 
 .text.hidGetSessionService
                0x000000000000ed00        0xc E:/SmashProjects/EveryoneHasWitchTime/code-mod-framework/lib/libnx_min/nx/lib\libnx_min.a(hid.o)
                0x000000000000ed00                hidGetSessionService
 *fill*         0x000000000000ed0c        0x4 
 .text.hidGetSharedmemAddr
                0x000000000000ed10        0xc E:/SmashProjects/EveryoneHasWitchTime/code-mod-framework/lib/libnx_min/nx/lib\libnx_min.a(hid.o)
                0x000000000000ed10                hidGetSharedmemAddr
 *fill*         0x000000000000ed1c        0x4 
 .text.hidSetControllerLayout
                0x000000000000ed20       0x54 E:/SmashProjects/EveryoneHasWitchTime/code-mod-framework/lib/libnx_min/nx/lib\libnx_min.a(hid.o)
                0x000000000000ed20                hidSetControllerLayout
 *fill*         0x000000000000ed74        0xc 
 .text.hidGetControllerLayout
                0x000000000000ed80       0x50 E:/SmashProjects/EveryoneHasWitchTime/code-mod-framework/lib/libnx_min/nx/lib\libnx_min.a(hid.o)
                0x000000000000ed80                hidGetControllerLayout
 .text.hidGetControllerType
                0x000000000000edd0       0x78 E:/SmashProjects/EveryoneHasWitchTime/code-mod-framework/lib/libnx_min/nx/lib\libnx_min.a(hid.o)
                0x000000000000edd0                hidGetControllerType
 *fill*         0x000000000000ee48        0x8 
 .text.hidGetControllerColors
                0x000000000000ee50       0xd4 E:/SmashProjects/EveryoneHasWitchTime/code-mod-framework/lib/libnx_min/nx/lib\libnx_min.a(hid.o)
                0x000000000000ee50                hidGetControllerColors
 *fill*         0x000000000000ef24        0xc 
 .text.hidIsControllerConnected
                0x000000000000ef30       0x7c E:/SmashProjects/EveryoneHasWitchTime/code-mod-framework/lib/libnx_min/nx/lib\libnx_min.a(hid.o)
                0x000000000000ef30                hidIsControllerConnected
 *fill*         0x000000000000efac        0x4 
 .text.hidGetControllerDeviceType
                0x000000000000efb0       0x70 E:/SmashProjects/EveryoneHasWitchTime/code-mod-framework/lib/libnx_min/nx/lib\libnx_min.a(hid.o)
                0x000000000000efb0                hidGetControllerDeviceType
 .text.hidGetControllerFlags
                0x000000000000f020       0x90 E:/SmashProjects/EveryoneHasWitchTime/code-mod-framework/lib/libnx_min/nx/lib\libnx_min.a(hid.o)
                0x000000000000f020                hidGetControllerFlags
 .text.hidGetControllerPowerInfo
                0x000000000000f0b0      0x114 E:/SmashProjects/EveryoneHasWitchTime/code-mod-framework/lib/libnx_min/nx/lib\libnx_min.a(hid.o)
                0x000000000000f0b0                hidGetControllerPowerInfo
 *fill*         0x000000000000f1c4        0xc 
 .text.hidKeysHeld
                0x000000000000f1d0       0x6c E:/SmashProjects/EveryoneHasWitchTime/code-mod-framework/lib/libnx_min/nx/lib\libnx_min.a(hid.o)
                0x000000000000f1d0                hidKeysHeld
 *fill*         0x000000000000f23c        0x4 
 .text.hidKeysDown
                0x000000000000f240       0x6c E:/SmashProjects/EveryoneHasWitchTime/code-mod-framework/lib/libnx_min/nx/lib\libnx_min.a(hid.o)
                0x000000000000f240                hidKeysDown
 *fill*         0x000000000000f2ac        0x4 
 .text.hidKeysUp
                0x000000000000f2b0       0x6c E:/SmashProjects/EveryoneHasWitchTime/code-mod-framework/lib/libnx_min/nx/lib\libnx_min.a(hid.o)
                0x000000000000f2b0                hidKeysUp
 *fill*         0x000000000000f31c        0x4 
 .text.hidMouseButtonsHeld
                0x000000000000f320       0x3c E:/SmashProjects/EveryoneHasWitchTime/code-mod-framework/lib/libnx_min/nx/lib\libnx_min.a(hid.o)
                0x000000000000f320                hidMouseButtonsHeld
 *fill*         0x000000000000f35c        0x4 
 .text.hidMouseButtonsDown
                0x000000000000f360       0x3c E:/SmashProjects/EveryoneHasWitchTime/code-mod-framework/lib/libnx_min/nx/lib\libnx_min.a(hid.o)
                0x000000000000f360                hidMouseButtonsDown
 *fill*         0x000000000000f39c        0x4 
 .text.hidMouseButtonsUp
                0x000000000000f3a0       0x3c E:/SmashProjects/EveryoneHasWitchTime/code-mod-framework/lib/libnx_min/nx/lib\libnx_min.a(hid.o)
                0x000000000000f3a0                hidMouseButtonsUp
 *fill*         0x000000000000f3dc        0x4 
 .text.hidMouseRead
                0x000000000000f3e0       0x48 E:/SmashProjects/EveryoneHasWitchTime/code-mod-framework/lib/libnx_min/nx/lib\libnx_min.a(hid.o)
                0x000000000000f3e0                hidMouseRead
 *fill*         0x000000000000f428        0x8 
 .text.hidMouseMultiRead
                0x000000000000f430      0x150 E:/SmashProjects/EveryoneHasWitchTime/code-mod-framework/lib/libnx_min/nx/lib\libnx_min.a(hid.o)
                0x000000000000f430                hidMouseMultiRead
 .text.hidKeyboardModifierHeld
                0x000000000000f580       0x48 E:/SmashProjects/EveryoneHasWitchTime/code-mod-framework/lib/libnx_min/nx/lib\libnx_min.a(hid.o)
                0x000000000000f580                hidKeyboardModifierHeld
 *fill*         0x000000000000f5c8        0x8 
 .text.hidKeyboardModifierDown
                0x000000000000f5d0       0x48 E:/SmashProjects/EveryoneHasWitchTime/code-mod-framework/lib/libnx_min/nx/lib\libnx_min.a(hid.o)
                0x000000000000f5d0                hidKeyboardModifierDown
 *fill*         0x000000000000f618        0x8 
 .text.hidKeyboardModifierUp
                0x000000000000f620       0x48 E:/SmashProjects/EveryoneHasWitchTime/code-mod-framework/lib/libnx_min/nx/lib\libnx_min.a(hid.o)
                0x000000000000f620                hidKeyboardModifierUp
 *fill*         0x000000000000f668        0x8 
 .text.hidKeyboardHeld
                0x000000000000f670       0x60 E:/SmashProjects/EveryoneHasWitchTime/code-mod-framework/lib/libnx_min/nx/lib\libnx_min.a(hid.o)
                0x000000000000f670                hidKeyboardHeld
 .text.hidKeyboardDown
                0x000000000000f6d0       0x60 E:/SmashProjects/EveryoneHasWitchTime/code-mod-framework/lib/libnx_min/nx/lib\libnx_min.a(hid.o)
                0x000000000000f6d0                hidKeyboardDown
 .text.hidKeyboardUp
                0x000000000000f730       0x60 E:/SmashProjects/EveryoneHasWitchTime/code-mod-framework/lib/libnx_min/nx/lib\libnx_min.a(hid.o)
                0x000000000000f730                hidKeyboardUp
 .text.hidTouchCount
                0x000000000000f790        0xc E:/SmashProjects/EveryoneHasWitchTime/code-mod-framework/lib/libnx_min/nx/lib\libnx_min.a(hid.o)
                0x000000000000f790                hidTouchCount
 *fill*         0x000000000000f79c        0x4 
 .text.hidScanInput
                0x000000000000f7a0      0x598 E:/SmashProjects/EveryoneHasWitchTime/code-mod-framework/lib/libnx_min/nx/lib\libnx_min.a(hid.o)
                0x000000000000f7a0                hidScanInput
 *fill*         0x000000000000fd38        0x8 
 .text.hidTouchRead
                0x000000000000fd40       0x54 E:/SmashProjects/EveryoneHasWitchTime/code-mod-framework/lib/libnx_min/nx/lib\libnx_min.a(hid.o)
                0x000000000000fd40                hidTouchRead
 *fill*         0x000000000000fd94        0xc 
 .text.hidJoystickRead
                0x000000000000fda0       0xac E:/SmashProjects/EveryoneHasWitchTime/code-mod-framework/lib/libnx_min/nx/lib\libnx_min.a(hid.o)
                0x000000000000fda0                hidJoystickRead
 *fill*         0x000000000000fe4c        0x4 
 .text.hidSixAxisSensorValuesRead
                0x000000000000fe50      0x214 E:/SmashProjects/EveryoneHasWitchTime/code-mod-framework/lib/libnx_min/nx/lib\libnx_min.a(hid.o)
                0x000000000000fe50                hidSixAxisSensorValuesRead
 *fill*         0x0000000000010064        0xc 
 .text.hidGetHandheldMode
                0x0000000000010070       0x14 E:/SmashProjects/EveryoneHasWitchTime/code-mod-framework/lib/libnx_min/nx/lib\libnx_min.a(hid.o)
                0x0000000000010070                hidGetHandheldMode
 *fill*         0x0000000000010084        0xc 
 .text.hidSetSupportedNpadIdType
                0x0000000000010090      0x198 E:/SmashProjects/EveryoneHasWitchTime/code-mod-framework/lib/libnx_min/nx/lib\libnx_min.a(hid.o)
                0x0000000000010090                hidSetSupportedNpadIdType
 *fill*         0x0000000000010228        0x8 
 .text.hidSetSupportedNpadStyleSet
                0x0000000000010230        0xc E:/SmashProjects/EveryoneHasWitchTime/code-mod-framework/lib/libnx_min/nx/lib\libnx_min.a(hid.o)
                0x0000000000010230                hidSetSupportedNpadStyleSet
 *fill*         0x000000000001023c        0x4 
 .text.hidAcquireNpadStyleSetUpdateEventHandle
                0x0000000000010240      0x194 E:/SmashProjects/EveryoneHasWitchTime/code-mod-framework/lib/libnx_min/nx/lib\libnx_min.a(hid.o)
                0x0000000000010240                hidAcquireNpadStyleSetUpdateEventHandle
 *fill*         0x00000000000103d4        0xc 
 .text.hidSetNpadJoyHoldType
                0x00000000000103e0        0x8 E:/SmashProjects/EveryoneHasWitchTime/code-mod-framework/lib/libnx_min/nx/lib\libnx_min.a(hid.o)
                0x00000000000103e0                hidSetNpadJoyHoldType
 *fill*         0x00000000000103e8        0x8 
 .text.hidSetNpadJoyAssignmentModeSingleByDefault
                0x00000000000103f0        0xc E:/SmashProjects/EveryoneHasWitchTime/code-mod-framework/lib/libnx_min/nx/lib\libnx_min.a(hid.o)
                0x00000000000103f0                hidSetNpadJoyAssignmentModeSingleByDefault
 *fill*         0x00000000000103fc        0x4 
 .text.hidSetNpadJoyAssignmentModeDual
                0x0000000000010400        0xc E:/SmashProjects/EveryoneHasWitchTime/code-mod-framework/lib/libnx_min/nx/lib\libnx_min.a(hid.o)
                0x0000000000010400                hidSetNpadJoyAssignmentModeDual
 *fill*         0x000000000001040c        0x4 
 .text.hidMergeSingleJoyAsDualJoy
                0x0000000000010410      0x110 E:/SmashProjects/EveryoneHasWitchTime/code-mod-framework/lib/libnx_min/nx/lib\libnx_min.a(hid.o)
                0x0000000000010410                hidMergeSingleJoyAsDualJoy
 .text.hidGetVibrationDeviceInfo
                0x0000000000010520       0xf8 E:/SmashProjects/EveryoneHasWitchTime/code-mod-framework/lib/libnx_min/nx/lib\libnx_min.a(hid.o)
                0x0000000000010520                hidGetVibrationDeviceInfo
 *fill*         0x0000000000010618        0x8 
 .text.hidSendVibrationValue
                0x0000000000010620      0x120 E:/SmashProjects/EveryoneHasWitchTime/code-mod-framework/lib/libnx_min/nx/lib\libnx_min.a(hid.o)
                0x0000000000010620                hidSendVibrationValue
 .text.hidGetActualVibrationValue
                0x0000000000010740      0x128 E:/SmashProjects/EveryoneHasWitchTime/code-mod-framework/lib/libnx_min/nx/lib\libnx_min.a(hid.o)
                0x0000000000010740                hidGetActualVibrationValue
 *fill*         0x0000000000010868        0x8 
 .text.hidPermitVibration
                0x0000000000010870       0xd0 E:/SmashProjects/EveryoneHasWitchTime/code-mod-framework/lib/libnx_min/nx/lib\libnx_min.a(hid.o)
                0x0000000000010870                hidPermitVibration
 .text.hidIsVibrationPermitted
                0x0000000000010940       0xf4 E:/SmashProjects/EveryoneHasWitchTime/code-mod-framework/lib/libnx_min/nx/lib\libnx_min.a(hid.o)
                0x0000000000010940                hidIsVibrationPermitted
 *fill*         0x0000000000010a34        0xc 
 .text.hidSendVibrationValues
                0x0000000000010a40      0x144 E:/SmashProjects/EveryoneHasWitchTime/code-mod-framework/lib/libnx_min/nx/lib\libnx_min.a(hid.o)
                0x0000000000010a40                hidSendVibrationValues
 *fill*         0x0000000000010b84        0xc 
 .text.hidInitializeVibrationDevices
                0x0000000000010b90      0x114 E:/SmashProjects/EveryoneHasWitchTime/code-mod-framework/lib/libnx_min/nx/lib\libnx_min.a(hid.o)
                0x0000000000010b90                hidInitializeVibrationDevices
 *fill*         0x0000000000010ca4        0xc 
 .text.hidGetSixAxisSensorHandles
                0x0000000000010cb0       0x2c E:/SmashProjects/EveryoneHasWitchTime/code-mod-framework/lib/libnx_min/nx/lib\libnx_min.a(hid.o)
                0x0000000000010cb0                hidGetSixAxisSensorHandles
 *fill*         0x0000000000010cdc        0x4 
 .text.hidStartSixAxisSensor
                0x0000000000010ce0       0x84 E:/SmashProjects/EveryoneHasWitchTime/code-mod-framework/lib/libnx_min/nx/lib\libnx_min.a(hid.o)
                0x0000000000010ce0                hidStartSixAxisSensor
 *fill*         0x0000000000010d64        0xc 
 .text.hidStopSixAxisSensor
                0x0000000000010d70       0x80 E:/SmashProjects/EveryoneHasWitchTime/code-mod-framework/lib/libnx_min/nx/lib\libnx_min.a(hid.o)
                0x0000000000010d70                hidStopSixAxisSensor
 .text.hidStartSevenSixAxisSensor
                0x0000000000010df0       0x30 E:/SmashProjects/EveryoneHasWitchTime/code-mod-framework/lib/libnx_min/nx/lib\libnx_min.a(hid.o)
                0x0000000000010df0                hidStartSevenSixAxisSensor
 .text.hidStopSevenSixAxisSensor
                0x0000000000010e20       0x30 E:/SmashProjects/EveryoneHasWitchTime/code-mod-framework/lib/libnx_min/nx/lib\libnx_min.a(hid.o)
                0x0000000000010e20                hidStopSevenSixAxisSensor
 .text.hidFinalizeSevenSixAxisSensor
                0x0000000000010e50       0x80 E:/SmashProjects/EveryoneHasWitchTime/code-mod-framework/lib/libnx_min/nx/lib\libnx_min.a(hid.o)
                0x0000000000010e50                hidFinalizeSevenSixAxisSensor
 .text.hidExit  0x0000000000010ed0      0x134 E:/SmashProjects/EveryoneHasWitchTime/code-mod-framework/lib/libnx_min/nx/lib\libnx_min.a(hid.o)
                0x0000000000010ed0                hidExit
 *fill*         0x0000000000011004        0xc 
 .text.hidInitialize
                0x0000000000011010      0x168 E:/SmashProjects/EveryoneHasWitchTime/code-mod-framework/lib/libnx_min/nx/lib\libnx_min.a(hid.o)
                0x0000000000011010                hidInitialize
 *fill*         0x0000000000011178        0x8 
 .text.hidInitializeSevenSixAxisSensor
                0x0000000000011180      0x130 E:/SmashProjects/EveryoneHasWitchTime/code-mod-framework/lib/libnx_min/nx/lib\libnx_min.a(hid.o)
                0x0000000000011180                hidInitializeSevenSixAxisSensor
 .text.hidSetSevenSixAxisSensorFusionStrength
                0x00000000000112b0      0x1f8 E:/SmashProjects/EveryoneHasWitchTime/code-mod-framework/lib/libnx_min/nx/lib\libnx_min.a(hid.o)
                0x00000000000112b0                hidSetSevenSixAxisSensorFusionStrength
 *fill*         0x00000000000114a8        0x8 
 .text.hidGetSevenSixAxisSensorFusionStrength
                0x00000000000114b0      0x1fc E:/SmashProjects/EveryoneHasWitchTime/code-mod-framework/lib/libnx_min/nx/lib\libnx_min.a(hid.o)
                0x00000000000114b0                hidGetSevenSixAxisSensorFusionStrength
 *fill*         0x00000000000116ac        0x4 
 .text.hidResetSevenSixAxisSensorTimestamp
                0x00000000000116b0       0x30 E:/SmashProjects/EveryoneHasWitchTime/code-mod-framework/lib/libnx_min/nx/lib\libnx_min.a(hid.o)
                0x00000000000116b0                hidResetSevenSixAxisSensorTimestamp
 .text.ipcCloseObjectById
                0x00000000000116e0       0x34 E:/SmashProjects/EveryoneHasWitchTime/code-mod-framework/lib/libnx_min/nx/lib\libnx_min.a(time.o)
 *fill*         0x0000000000011714        0xc 
 .text._timeGetSession
                0x0000000000011720      0x12c E:/SmashProjects/EveryoneHasWitchTime/code-mod-framework/lib/libnx_min/nx/lib\libnx_min.a(time.o)
 *fill*         0x000000000001184c        0x4 
 .text.timeExit
                0x0000000000011850      0x1ec E:/SmashProjects/EveryoneHasWitchTime/code-mod-framework/lib/libnx_min/nx/lib\libnx_min.a(time.o)
                0x0000000000011850                timeExit
 *fill*         0x0000000000011a3c        0x4 
 .text.timeInitialize
                0x0000000000011a40       0xd8 E:/SmashProjects/EveryoneHasWitchTime/code-mod-framework/lib/libnx_min/nx/lib\libnx_min.a(time.o)
                0x0000000000011a40                timeInitialize
 *fill*         0x0000000000011b18        0x8 
 .text.timeGetSessionService
                0x0000000000011b20        0xc E:/SmashProjects/EveryoneHasWitchTime/code-mod-framework/lib/libnx_min/nx/lib\libnx_min.a(time.o)
                0x0000000000011b20                timeGetSessionService
 *fill*         0x0000000000011b2c        0x4 
 .text.timeGetCurrentTime
                0x0000000000011b30      0x124 E:/SmashProjects/EveryoneHasWitchTime/code-mod-framework/lib/libnx_min/nx/lib\libnx_min.a(time.o)
                0x0000000000011b30                timeGetCurrentTime
 *fill*         0x0000000000011c54        0xc 
 .text.timeSetCurrentTime
                0x0000000000011c60      0x104 E:/SmashProjects/EveryoneHasWitchTime/code-mod-framework/lib/libnx_min/nx/lib\libnx_min.a(time.o)
                0x0000000000011c60                timeSetCurrentTime
 *fill*         0x0000000000011d64        0xc 
 .text.timeToCalendarTimeWithMyRule
                0x0000000000011d70      0x118 E:/SmashProjects/EveryoneHasWitchTime/code-mod-framework/lib/libnx_min/nx/lib\libnx_min.a(time.o)
                0x0000000000011d70                timeToCalendarTimeWithMyRule
 *fill*         0x0000000000011e88        0x8 
 .text.ipcPrepareHeader
                0x0000000000011e90      0x220 E:/SmashProjects/EveryoneHasWitchTime/code-mod-framework/lib/libnx_min/nx/lib\libnx_min.a(applet.o)
 .text.ipcParse
                0x00000000000120b0      0x22c E:/SmashProjects/EveryoneHasWitchTime/code-mod-framework/lib/libnx_min/nx/lib\libnx_min.a(applet.o)
 *fill*         0x00000000000122dc        0x4 
 .text.serviceIpcParse
                0x00000000000122e0       0xb0 E:/SmashProjects/EveryoneHasWitchTime/code-mod-framework/lib/libnx_min/nx/lib\libnx_min.a(applet.o)
 .text.ipcConvertSessionToDomain
                0x0000000000012390       0x78 E:/SmashProjects/EveryoneHasWitchTime/code-mod-framework/lib/libnx_min/nx/lib\libnx_min.a(applet.o)
 *fill*         0x0000000000012408        0x8 
 .text.ipcQueryPointerBufferSize
                0x0000000000012410       0x7c E:/SmashProjects/EveryoneHasWitchTime/code-mod-framework/lib/libnx_min/nx/lib\libnx_min.a(applet.o)
 *fill*         0x000000000001248c        0x4 
 .text.ipcCloneSession.constprop.52
                0x0000000000012490       0x84 E:/SmashProjects/EveryoneHasWitchTime/code-mod-framework/lib/libnx_min/nx/lib\libnx_min.a(applet.o)
 *fill*         0x0000000000012514        0xc 
 .text.ipcCloseObjectById
                0x0000000000012520       0x34 E:/SmashProjects/EveryoneHasWitchTime/code-mod-framework/lib/libnx_min/nx/lib\libnx_min.a(applet.o)
 *fill*         0x0000000000012554        0xc 
 .text.serviceClose
                0x0000000000012560       0x6c E:/SmashProjects/EveryoneHasWitchTime/code-mod-framework/lib/libnx_min/nx/lib\libnx_min.a(applet.o)
 *fill*         0x00000000000125cc        0x4 
 .text._appletCmdInHandle64
                0x00000000000125d0      0x204 E:/SmashProjects/EveryoneHasWitchTime/code-mod-framework/lib/libnx_min/nx/lib\libnx_min.a(applet.o)
 *fill*         0x00000000000127d4        0xc 
 .text._appletReceiveMessage
                0x00000000000127e0      0x19c E:/SmashProjects/EveryoneHasWitchTime/code-mod-framework/lib/libnx_min/nx/lib\libnx_min.a(applet.o)
 *fill*         0x000000000001297c        0x4 
 .text._appletCmdNoIO
                0x0000000000012980      0x164 E:/SmashProjects/EveryoneHasWitchTime/code-mod-framework/lib/libnx_min/nx/lib\libnx_min.a(applet.o)
 *fill*         0x0000000000012ae4        0xc 
 .text._appletGetOperationMode.constprop.43
                0x0000000000012af0      0x18c E:/SmashProjects/EveryoneHasWitchTime/code-mod-framework/lib/libnx_min/nx/lib\libnx_min.a(applet.o)
 *fill*         0x0000000000012c7c        0x4 
 .text._appletGetCurrentFocusState.constprop.45
                0x0000000000012c80      0x18c E:/SmashProjects/EveryoneHasWitchTime/code-mod-framework/lib/libnx_min/nx/lib\libnx_min.a(applet.o)
 *fill*         0x0000000000012e0c        0x4 
 .text._appletGetPerformanceMode.constprop.44
                0x0000000000012e10      0x18c E:/SmashProjects/EveryoneHasWitchTime/code-mod-framework/lib/libnx_min/nx/lib\libnx_min.a(applet.o)
 *fill*         0x0000000000012f9c        0x4 
 .text._appletCmdNoInOutBool
                0x0000000000012fa0      0x184 E:/SmashProjects/EveryoneHasWitchTime/code-mod-framework/lib/libnx_min/nx/lib\libnx_min.a(applet.o)
 *fill*         0x0000000000013124        0xc 
 .text._appletGetSession
                0x0000000000013130      0x1d8 E:/SmashProjects/EveryoneHasWitchTime/code-mod-framework/lib/libnx_min/nx/lib\libnx_min.a(applet.o)
 *fill*         0x0000000000013308        0x8 
 .text._appletCmdNoInOut64
                0x0000000000013310      0x17c E:/SmashProjects/EveryoneHasWitchTime/code-mod-framework/lib/libnx_min/nx/lib\libnx_min.a(applet.o)
 *fill*         0x000000000001348c        0x4 
 .text._appletSetOperationModeChangedNotification.constprop.46
                0x0000000000013490      0x164 E:/SmashProjects/EveryoneHasWitchTime/code-mod-framework/lib/libnx_min/nx/lib\libnx_min.a(applet.o)
 *fill*         0x00000000000135f4        0xc 
 .text._appletCmdInU8
                0x0000000000013600      0x17c E:/SmashProjects/EveryoneHasWitchTime/code-mod-framework/lib/libnx_min/nx/lib\libnx_min.a(applet.o)
 *fill*         0x000000000001377c        0x4 
 .text._appletSetOutOfFocusSuspendingEnabled
                0x0000000000013780      0x16c E:/SmashProjects/EveryoneHasWitchTime/code-mod-framework/lib/libnx_min/nx/lib\libnx_min.a(applet.o)
 *fill*         0x00000000000138ec        0x4 
 .text._appletSetPerformanceModeChangedNotification.constprop.47
                0x00000000000138f0      0x164 E:/SmashProjects/EveryoneHasWitchTime/code-mod-framework/lib/libnx_min/nx/lib\libnx_min.a(applet.o)
 *fill*         0x0000000000013a54        0xc 
 .text._appletCmdInU64.constprop.37
                0x0000000000013a60      0x16c E:/SmashProjects/EveryoneHasWitchTime/code-mod-framework/lib/libnx_min/nx/lib\libnx_min.a(applet.o)
 *fill*         0x0000000000013bcc        0x4 
 .text._appletCmdInU32.constprop.48
                0x0000000000013bd0      0x16c E:/SmashProjects/EveryoneHasWitchTime/code-mod-framework/lib/libnx_min/nx/lib\libnx_min.a(applet.o)
 *fill*         0x0000000000013d3c        0x4 
 .text._appletSetFocusHandlingMode
                0x0000000000013d40      0x17c E:/SmashProjects/EveryoneHasWitchTime/code-mod-framework/lib/libnx_min/nx/lib\libnx_min.a(applet.o)
 *fill*         0x0000000000013ebc        0x4 
 .text._appletGetHandle.constprop.42
                0x0000000000013ec0      0x178 E:/SmashProjects/EveryoneHasWitchTime/code-mod-framework/lib/libnx_min/nx/lib\libnx_min.a(applet.o)
 *fill*         0x0000000000014038        0x8 
 .text._appletGetEvent.constprop.41
                0x0000000000014040       0x54 E:/SmashProjects/EveryoneHasWitchTime/code-mod-framework/lib/libnx_min/nx/lib\libnx_min.a(applet.o)
 *fill*         0x0000000000014094        0xc 
 .text._appletWaitLibraryAppletLaunchableEvent
                0x00000000000140a0       0x50 E:/SmashProjects/EveryoneHasWitchTime/code-mod-framework/lib/libnx_min/nx/lib\libnx_min.a(applet.o)
 .text._appletCreateApplicationAndRequestToStartForQuest.isra.20
                0x00000000000140f0      0x17c E:/SmashProjects/EveryoneHasWitchTime/code-mod-framework/lib/libnx_min/nx/lib\libnx_min.a(applet.o)
 *fill*         0x000000000001426c        0x4 
 .text._appletCreateApplicationAndPushAndRequestToStart
                0x0000000000014270      0x1e0 E:/SmashProjects/EveryoneHasWitchTime/code-mod-framework/lib/libnx_min/nx/lib\libnx_min.a(applet.o)
 .text._appletCmdNoInOut32.constprop.38
                0x0000000000014450      0x194 E:/SmashProjects/EveryoneHasWitchTime/code-mod-framework/lib/libnx_min/nx/lib\libnx_min.a(applet.o)
 *fill*         0x00000000000145e4        0xc 
 .text._appletCmdInSession
                0x00000000000145f0      0x1d8 E:/SmashProjects/EveryoneHasWitchTime/code-mod-framework/lib/libnx_min/nx/lib\libnx_min.a(applet.o)
 *fill*         0x00000000000147c8        0x8 
 .text._appletStorageGetHandle
                0x00000000000147d0      0x19c E:/SmashProjects/EveryoneHasWitchTime/code-mod-framework/lib/libnx_min/nx/lib\libnx_min.a(applet.o)
 *fill*         0x000000000001496c        0x4 
 .text._appletCreateApplicationAndPushAndRequestToStartForQuest.isra.21
                0x0000000000014970      0x1e8 E:/SmashProjects/EveryoneHasWitchTime/code-mod-framework/lib/libnx_min/nx/lib\libnx_min.a(applet.o)
 *fill*         0x0000000000014b58        0x8 
 .text._appletCreateTransferMemoryStorage.isra.25
                0x0000000000014b60      0x1e4 E:/SmashProjects/EveryoneHasWitchTime/code-mod-framework/lib/libnx_min/nx/lib\libnx_min.a(applet.o)
 *fill*         0x0000000000014d44        0xc 
 .text._appletGetSessionIn64.constprop.39
                0x0000000000014d50      0x1c4 E:/SmashProjects/EveryoneHasWitchTime/code-mod-framework/lib/libnx_min/nx/lib\libnx_min.a(applet.o)
 *fill*         0x0000000000014f14        0xc 
 .text._appletStorageAccessorRW
                0x0000000000014f20      0x314 E:/SmashProjects/EveryoneHasWitchTime/code-mod-framework/lib/libnx_min/nx/lib\libnx_min.a(applet.o)
 *fill*         0x0000000000015234        0xc 
 .text._appletStorageRW
                0x0000000000015240      0x108 E:/SmashProjects/EveryoneHasWitchTime/code-mod-framework/lib/libnx_min/nx/lib\libnx_min.a(applet.o)
 *fill*         0x0000000000015348        0x8 
 .text._appletCreateLibraryApplet
                0x0000000000015350      0x1c4 E:/SmashProjects/EveryoneHasWitchTime/code-mod-framework/lib/libnx_min/nx/lib\libnx_min.a(applet.o)
 *fill*         0x0000000000015514        0xc 
 .text._appletGetSessionProxy.constprop.40
                0x0000000000015520      0x1f0 E:/SmashProjects/EveryoneHasWitchTime/code-mod-framework/lib/libnx_min/nx/lib\libnx_min.a(applet.o)
 .text.appletGetAppletType
                0x0000000000015710       0x10 E:/SmashProjects/EveryoneHasWitchTime/code-mod-framework/lib/libnx_min/nx/lib\libnx_min.a(applet.o)
                0x0000000000015710                appletGetAppletType
 .text.appletHook
                0x0000000000015720       0x28 E:/SmashProjects/EveryoneHasWitchTime/code-mod-framework/lib/libnx_min/nx/lib\libnx_min.a(applet.o)
                0x0000000000015720                appletHook
 *fill*         0x0000000000015748        0x8 
 .text.appletUnhook
                0x0000000000015750       0x34 E:/SmashProjects/EveryoneHasWitchTime/code-mod-framework/lib/libnx_min/nx/lib\libnx_min.a(applet.o)
                0x0000000000015750                appletUnhook
 *fill*         0x0000000000015784        0xc 
 .text.appletSetThemeColorType
                0x0000000000015790        0xc E:/SmashProjects/EveryoneHasWitchTime/code-mod-framework/lib/libnx_min/nx/lib\libnx_min.a(applet.o)
                0x0000000000015790                appletSetThemeColorType
 *fill*         0x000000000001579c        0x4 
 .text.appletGetThemeColorType
                0x00000000000157a0        0xc E:/SmashProjects/EveryoneHasWitchTime/code-mod-framework/lib/libnx_min/nx/lib\libnx_min.a(applet.o)
                0x00000000000157a0                appletGetThemeColorType
 *fill*         0x00000000000157ac        0x4 
 .text.appletSetFocusHandlingMode
                0x00000000000157b0       0xf0 E:/SmashProjects/EveryoneHasWitchTime/code-mod-framework/lib/libnx_min/nx/lib\libnx_min.a(applet.o)
                0x00000000000157b0                appletSetFocusHandlingMode
 .text.appletGetAppletResourceUserId
                0x00000000000158a0       0x28 E:/SmashProjects/EveryoneHasWitchTime/code-mod-framework/lib/libnx_min/nx/lib\libnx_min.a(applet.o)
                0x00000000000158a0                appletGetAppletResourceUserId
 *fill*         0x00000000000158c8        0x8 
 .text._appletGetIndirectLayerConsumerHandle
                0x00000000000158d0      0x12c E:/SmashProjects/EveryoneHasWitchTime/code-mod-framework/lib/libnx_min/nx/lib\libnx_min.a(applet.o)
 *fill*         0x00000000000159fc        0x4 
 .text._appletHolderCreate
                0x0000000000015a00       0xc0 E:/SmashProjects/EveryoneHasWitchTime/code-mod-framework/lib/libnx_min/nx/lib\libnx_min.a(applet.o)
 .text.appletPopLaunchParameter
                0x0000000000015ac0      0x194 E:/SmashProjects/EveryoneHasWitchTime/code-mod-framework/lib/libnx_min/nx/lib\libnx_min.a(applet.o)
                0x0000000000015ac0                appletPopLaunchParameter
 *fill*         0x0000000000015c54        0xc 
 .text.appletGetDesiredLanguage
                0x0000000000015c60       0x3c E:/SmashProjects/EveryoneHasWitchTime/code-mod-framework/lib/libnx_min/nx/lib\libnx_min.a(applet.o)
                0x0000000000015c60                appletGetDesiredLanguage
 *fill*         0x0000000000015c9c        0x4 
 .text.appletSetTerminateResult
                0x0000000000015ca0      0x14c E:/SmashProjects/EveryoneHasWitchTime/code-mod-framework/lib/libnx_min/nx/lib\libnx_min.a(applet.o)
                0x0000000000015ca0                appletSetTerminateResult
 *fill*         0x0000000000015dec        0x4 
 .text.appletSetMediaPlaybackState
                0x0000000000015df0       0x4c E:/SmashProjects/EveryoneHasWitchTime/code-mod-framework/lib/libnx_min/nx/lib\libnx_min.a(applet.o)
                0x0000000000015df0                appletSetMediaPlaybackState
 *fill*         0x0000000000015e3c        0x4 
 .text.appletBeginBlockingHomeButton
                0x0000000000015e40      0x14c E:/SmashProjects/EveryoneHasWitchTime/code-mod-framework/lib/libnx_min/nx/lib\libnx_min.a(applet.o)
                0x0000000000015e40                appletBeginBlockingHomeButton
 *fill*         0x0000000000015f8c        0x4 
 .text.appletEndBlockingHomeButton
                0x0000000000015f90       0x38 E:/SmashProjects/EveryoneHasWitchTime/code-mod-framework/lib/libnx_min/nx/lib\libnx_min.a(applet.o)
                0x0000000000015f90                appletEndBlockingHomeButton
 *fill*         0x0000000000015fc8        0x8 
 .text.appletNotifyRunning
                0x0000000000015fd0      0x174 E:/SmashProjects/EveryoneHasWitchTime/code-mod-framework/lib/libnx_min/nx/lib\libnx_min.a(applet.o)
                0x0000000000015fd0                appletNotifyRunning
 *fill*         0x0000000000016144        0xc 
 .text.appletIsGamePlayRecordingSupported
                0x0000000000016150      0x168 E:/SmashProjects/EveryoneHasWitchTime/code-mod-framework/lib/libnx_min/nx/lib\libnx_min.a(applet.o)
                0x0000000000016150                appletIsGamePlayRecordingSupported
 *fill*         0x00000000000162b8        0x8 
 .text.appletSetGamePlayRecordingState
                0x00000000000162c0      0x158 E:/SmashProjects/EveryoneHasWitchTime/code-mod-framework/lib/libnx_min/nx/lib\libnx_min.a(applet.o)
                0x00000000000162c0                appletSetGamePlayRecordingState
 *fill*         0x0000000000016418        0x8 
 .text.appletInitializeGamePlayRecording
                0x0000000000016420      0x138 E:/SmashProjects/EveryoneHasWitchTime/code-mod-framework/lib/libnx_min/nx/lib\libnx_min.a(applet.o)
                0x0000000000016420                appletInitializeGamePlayRecording
 *fill*         0x0000000000016558        0x8 
 .text.appletQueryApplicationPlayStatistics
                0x0000000000016560      0x1c0 E:/SmashProjects/EveryoneHasWitchTime/code-mod-framework/lib/libnx_min/nx/lib\libnx_min.a(applet.o)
                0x0000000000016560                appletQueryApplicationPlayStatistics
 .text.appletBeginToWatchShortHomeButtonMessage
                0x0000000000016720       0x2c E:/SmashProjects/EveryoneHasWitchTime/code-mod-framework/lib/libnx_min/nx/lib\libnx_min.a(applet.o)
                0x0000000000016720                appletBeginToWatchShortHomeButtonMessage
 *fill*         0x000000000001674c        0x4 
 .text.appletEndToWatchShortHomeButtonMessage
                0x0000000000016750       0x2c E:/SmashProjects/EveryoneHasWitchTime/code-mod-framework/lib/libnx_min/nx/lib\libnx_min.a(applet.o)
                0x0000000000016750                appletEndToWatchShortHomeButtonMessage
 *fill*         0x000000000001677c        0x4 
 .text.appletHomeButtonReaderLockAccessorGetEvent
                0x0000000000016780       0xc8 E:/SmashProjects/EveryoneHasWitchTime/code-mod-framework/lib/libnx_min/nx/lib\libnx_min.a(applet.o)
                0x0000000000016780                appletHomeButtonReaderLockAccessorGetEvent
 *fill*         0x0000000000016848        0x8 
 .text.appletIsVrModeEnabled
                0x0000000000016850       0x4c E:/SmashProjects/EveryoneHasWitchTime/code-mod-framework/lib/libnx_min/nx/lib\libnx_min.a(applet.o)
                0x0000000000016850                appletIsVrModeEnabled
 *fill*         0x000000000001689c        0x4 
 .text.appletSetVrModeEnabled
                0x00000000000168a0       0x78 E:/SmashProjects/EveryoneHasWitchTime/code-mod-framework/lib/libnx_min/nx/lib\libnx_min.a(applet.o)
                0x00000000000168a0                appletSetVrModeEnabled
 *fill*         0x0000000000016918        0x8 
 .text.appletSetCpuBoostMode
                0x0000000000016920       0x50 E:/SmashProjects/EveryoneHasWitchTime/code-mod-framework/lib/libnx_min/nx/lib\libnx_min.a(applet.o)
                0x0000000000016920                appletSetCpuBoostMode
 .text.appletExit
                0x0000000000016970      0x5dc E:/SmashProjects/EveryoneHasWitchTime/code-mod-framework/lib/libnx_min/nx/lib\libnx_min.a(applet.o)
                0x0000000000016970                appletExit
 *fill*         0x0000000000016f4c        0x4 
 .text.appletInitialize
                0x0000000000016f50      0x4f0 E:/SmashProjects/EveryoneHasWitchTime/code-mod-framework/lib/libnx_min/nx/lib\libnx_min.a(applet.o)
                0x0000000000016f50                appletInitialize
 .text._appletExitProcess
                0x0000000000017440       0x10 E:/SmashProjects/EveryoneHasWitchTime/code-mod-framework/lib/libnx_min/nx/lib\libnx_min.a(applet.o)
 .text.appletGetCurrentPerformanceConfiguration
                0x0000000000017450       0x40 E:/SmashProjects/EveryoneHasWitchTime/code-mod-framework/lib/libnx_min/nx/lib\libnx_min.a(applet.o)
                0x0000000000017450                appletGetCurrentPerformanceConfiguration
 .text.appletLockExit
                0x0000000000017490       0x10 E:/SmashProjects/EveryoneHasWitchTime/code-mod-framework/lib/libnx_min/nx/lib\libnx_min.a(applet.o)
                0x0000000000017490                appletLockExit
 .text.appletUnlockExit
                0x00000000000174a0       0x10 E:/SmashProjects/EveryoneHasWitchTime/code-mod-framework/lib/libnx_min/nx/lib\libnx_min.a(applet.o)
                0x00000000000174a0                appletUnlockExit
 .text.appletSetScreenShotPermission
                0x00000000000174b0      0x16c E:/SmashProjects/EveryoneHasWitchTime/code-mod-framework/lib/libnx_min/nx/lib\libnx_min.a(applet.o)
                0x00000000000174b0                appletSetScreenShotPermission
 *fill*         0x000000000001761c        0x4 
 .text.appletSetScreenShotImageOrientation
                0x0000000000017620      0x1c4 E:/SmashProjects/EveryoneHasWitchTime/code-mod-framework/lib/libnx_min/nx/lib\libnx_min.a(applet.o)
                0x0000000000017620                appletSetScreenShotImageOrientation
 *fill*         0x00000000000177e4        0xc 
 .text.appletCreateManagedDisplayLayer
                0x00000000000177f0       0x14 E:/SmashProjects/EveryoneHasWitchTime/code-mod-framework/lib/libnx_min/nx/lib\libnx_min.a(applet.o)
                0x00000000000177f0                appletCreateManagedDisplayLayer
 *fill*         0x0000000000017804        0xc 
 .text.appletGetCurrentIlluminance
                0x0000000000017810      0x168 E:/SmashProjects/EveryoneHasWitchTime/code-mod-framework/lib/libnx_min/nx/lib\libnx_min.a(applet.o)
                0x0000000000017810                appletGetCurrentIlluminance
 *fill*         0x0000000000017978        0x8 
 .text.appletIsIlluminanceAvailable
                0x0000000000017980       0x4c E:/SmashProjects/EveryoneHasWitchTime/code-mod-framework/lib/libnx_min/nx/lib\libnx_min.a(applet.o)
                0x0000000000017980                appletIsIlluminanceAvailable
 *fill*         0x00000000000179cc        0x4 
 .text.appletGetCurrentIlluminanceEx
                0x00000000000179d0      0x19c E:/SmashProjects/EveryoneHasWitchTime/code-mod-framework/lib/libnx_min/nx/lib\libnx_min.a(applet.o)
                0x00000000000179d0                appletGetCurrentIlluminanceEx
 *fill*         0x0000000000017b6c        0x4 
 .text.appletCreateLibraryApplet
                0x0000000000017b70        0x8 E:/SmashProjects/EveryoneHasWitchTime/code-mod-framework/lib/libnx_min/nx/lib\libnx_min.a(applet.o)
                0x0000000000017b70                appletCreateLibraryApplet
 *fill*         0x0000000000017b78        0x8 
 .text.appletCreateLibraryAppletSelf
                0x0000000000017b80        0x8 E:/SmashProjects/EveryoneHasWitchTime/code-mod-framework/lib/libnx_min/nx/lib\libnx_min.a(applet.o)
                0x0000000000017b80                appletCreateLibraryAppletSelf
 *fill*         0x0000000000017b88        0x8 
 .text.appletHolderClose
                0x0000000000017b90       0x94 E:/SmashProjects/EveryoneHasWitchTime/code-mod-framework/lib/libnx_min/nx/lib\libnx_min.a(applet.o)
                0x0000000000017b90                appletHolderClose
 *fill*         0x0000000000017c24        0xc 
 .text.appletHolderActive
                0x0000000000017c30       0x10 E:/SmashProjects/EveryoneHasWitchTime/code-mod-framework/lib/libnx_min/nx/lib\libnx_min.a(applet.o)
                0x0000000000017c30                appletHolderActive
 .text.appletHolderGetIndirectLayerConsumerHandle
                0x0000000000017c40       0x74 E:/SmashProjects/EveryoneHasWitchTime/code-mod-framework/lib/libnx_min/nx/lib\libnx_min.a(applet.o)
                0x0000000000017c40                appletHolderGetIndirectLayerConsumerHandle
 *fill*         0x0000000000017cb4        0xc 
 .text.appletHolderStart
                0x0000000000017cc0       0x50 E:/SmashProjects/EveryoneHasWitchTime/code-mod-framework/lib/libnx_min/nx/lib\libnx_min.a(applet.o)
                0x0000000000017cc0                appletHolderStart
 .text.appletHolderJoin
                0x0000000000017d10       0x80 E:/SmashProjects/EveryoneHasWitchTime/code-mod-framework/lib/libnx_min/nx/lib\libnx_min.a(applet.o)
                0x0000000000017d10                appletHolderJoin
 .text.appletHolderCheckFinished
                0x0000000000017d90       0x24 E:/SmashProjects/EveryoneHasWitchTime/code-mod-framework/lib/libnx_min/nx/lib\libnx_min.a(applet.o)
                0x0000000000017d90                appletHolderCheckFinished
 *fill*         0x0000000000017db4        0xc 
 .text.appletHolderRequestExit
                0x0000000000017dc0       0x50 E:/SmashProjects/EveryoneHasWitchTime/code-mod-framework/lib/libnx_min/nx/lib\libnx_min.a(applet.o)
                0x0000000000017dc0                appletHolderRequestExit
 .text.appletHolderGetExitReason
                0x0000000000017e10        0x8 E:/SmashProjects/EveryoneHasWitchTime/code-mod-framework/lib/libnx_min/nx/lib\libnx_min.a(applet.o)
                0x0000000000017e10                appletHolderGetExitReason
 *fill*         0x0000000000017e18        0x8 
 .text.appletHolderWaitInteractiveOut
                0x0000000000017e20       0x88 E:/SmashProjects/EveryoneHasWitchTime/code-mod-framework/lib/libnx_min/nx/lib\libnx_min.a(applet.o)
                0x0000000000017e20                appletHolderWaitInteractiveOut
 *fill*         0x0000000000017ea8        0x8 
 .text.appletHolderPopOutData
                0x0000000000017eb0       0x18 E:/SmashProjects/EveryoneHasWitchTime/code-mod-framework/lib/libnx_min/nx/lib\libnx_min.a(applet.o)
                0x0000000000017eb0                appletHolderPopOutData
 *fill*         0x0000000000017ec8        0x8 
 .text.appletHolderPopInteractiveOutData
                0x0000000000017ed0       0x18 E:/SmashProjects/EveryoneHasWitchTime/code-mod-framework/lib/libnx_min/nx/lib\libnx_min.a(applet.o)
                0x0000000000017ed0                appletHolderPopInteractiveOutData
 *fill*         0x0000000000017ee8        0x8 
 .text.appletCreateStorage
                0x0000000000017ef0       0x14 E:/SmashProjects/EveryoneHasWitchTime/code-mod-framework/lib/libnx_min/nx/lib\libnx_min.a(applet.o)
                0x0000000000017ef0                appletCreateStorage
 *fill*         0x0000000000017f04        0xc 
 .text.appletCreateTransferMemoryStorage
                0x0000000000017f10       0xa8 E:/SmashProjects/EveryoneHasWitchTime/code-mod-framework/lib/libnx_min/nx/lib\libnx_min.a(applet.o)
                0x0000000000017f10                appletCreateTransferMemoryStorage
 *fill*         0x0000000000017fb8        0x8 
 .text.appletCreateHandleStorage
                0x0000000000017fc0       0x64 E:/SmashProjects/EveryoneHasWitchTime/code-mod-framework/lib/libnx_min/nx/lib\libnx_min.a(applet.o)
                0x0000000000017fc0                appletCreateHandleStorage
 *fill*         0x0000000000018024        0xc 
 .text.appletCreateHandleStorageTmem
                0x0000000000018030       0xa0 E:/SmashProjects/EveryoneHasWitchTime/code-mod-framework/lib/libnx_min/nx/lib\libnx_min.a(applet.o)
                0x0000000000018030                appletCreateHandleStorageTmem
 .text.appletStorageClose
                0x00000000000180d0       0x6c E:/SmashProjects/EveryoneHasWitchTime/code-mod-framework/lib/libnx_min/nx/lib\libnx_min.a(applet.o)
                0x00000000000180d0                appletStorageClose
 *fill*         0x000000000001813c        0x4 
 .text.appletRequestLaunchApplication
                0x0000000000018140      0x188 E:/SmashProjects/EveryoneHasWitchTime/code-mod-framework/lib/libnx_min/nx/lib\libnx_min.a(applet.o)
                0x0000000000018140                appletRequestLaunchApplication
 *fill*         0x00000000000182c8        0x8 
 .text.appletRequestLaunchApplicationForQuest
                0x00000000000182d0      0x168 E:/SmashProjects/EveryoneHasWitchTime/code-mod-framework/lib/libnx_min/nx/lib\libnx_min.a(applet.o)
                0x00000000000182d0                appletRequestLaunchApplicationForQuest
 *fill*         0x0000000000018438        0x8 
 .text.appletHolderPushInteractiveInData
                0x0000000000018440       0x40 E:/SmashProjects/EveryoneHasWitchTime/code-mod-framework/lib/libnx_min/nx/lib\libnx_min.a(applet.o)
                0x0000000000018440                appletHolderPushInteractiveInData
 .text.appletPushToGeneralChannel
                0x0000000000018480       0x4c E:/SmashProjects/EveryoneHasWitchTime/code-mod-framework/lib/libnx_min/nx/lib\libnx_min.a(applet.o)
                0x0000000000018480                appletPushToGeneralChannel
 *fill*         0x00000000000184cc        0x4 
 .text.appletHolderPushInData
                0x00000000000184d0       0x40 E:/SmashProjects/EveryoneHasWitchTime/code-mod-framework/lib/libnx_min/nx/lib\libnx_min.a(applet.o)
                0x00000000000184d0                appletHolderPushInData
 .text.appletHolderPushExtraStorage
                0x0000000000018510       0x40 E:/SmashProjects/EveryoneHasWitchTime/code-mod-framework/lib/libnx_min/nx/lib\libnx_min.a(applet.o)
                0x0000000000018510                appletHolderPushExtraStorage
 .text.appletStorageCloseTmem
                0x0000000000018550        0x8 E:/SmashProjects/EveryoneHasWitchTime/code-mod-framework/lib/libnx_min/nx/lib\libnx_min.a(applet.o)
                0x0000000000018550                appletStorageCloseTmem
 *fill*         0x0000000000018558        0x8 
 .text.appletStorageGetSize
                0x0000000000018560       0xc4 E:/SmashProjects/EveryoneHasWitchTime/code-mod-framework/lib/libnx_min/nx/lib\libnx_min.a(applet.o)
                0x0000000000018560                appletStorageGetSize
 *fill*         0x0000000000018624        0xc 
 .text.appletStorageWrite
                0x0000000000018630        0x8 E:/SmashProjects/EveryoneHasWitchTime/code-mod-framework/lib/libnx_min/nx/lib\libnx_min.a(applet.o)
                0x0000000000018630                appletStorageWrite
 *fill*         0x0000000000018638        0x8 
 .text.appletStorageRead
                0x0000000000018640        0x8 E:/SmashProjects/EveryoneHasWitchTime/code-mod-framework/lib/libnx_min/nx/lib\libnx_min.a(applet.o)
                0x0000000000018640                appletStorageRead
 *fill*         0x0000000000018648        0x8 
 .text.appletStorageGetHandle
                0x0000000000018650       0xfc E:/SmashProjects/EveryoneHasWitchTime/code-mod-framework/lib/libnx_min/nx/lib\libnx_min.a(applet.o)
                0x0000000000018650                appletStorageGetHandle
 *fill*         0x000000000001874c        0x4 
 .text.appletStorageMap
                0x0000000000018750       0xcc E:/SmashProjects/EveryoneHasWitchTime/code-mod-framework/lib/libnx_min/nx/lib\libnx_min.a(applet.o)
                0x0000000000018750                appletStorageMap
 *fill*         0x000000000001881c        0x4 
 .text.appletGetOperationMode
                0x0000000000018820        0xc E:/SmashProjects/EveryoneHasWitchTime/code-mod-framework/lib/libnx_min/nx/lib\libnx_min.a(applet.o)
                0x0000000000018820                appletGetOperationMode
 *fill*         0x000000000001882c        0x4 
 .text.appletGetPerformanceMode
                0x0000000000018830        0xc E:/SmashProjects/EveryoneHasWitchTime/code-mod-framework/lib/libnx_min/nx/lib\libnx_min.a(applet.o)
                0x0000000000018830                appletGetPerformanceMode
 *fill*         0x000000000001883c        0x4 
 .text.appletGetFocusState
                0x0000000000018840        0xc E:/SmashProjects/EveryoneHasWitchTime/code-mod-framework/lib/libnx_min/nx/lib\libnx_min.a(applet.o)
                0x0000000000018840                appletGetFocusState
 *fill*         0x000000000001884c        0x4 
 .text.appletGetMessage
                0x0000000000018850       0x5c E:/SmashProjects/EveryoneHasWitchTime/code-mod-framework/lib/libnx_min/nx/lib\libnx_min.a(applet.o)
                0x0000000000018850                appletGetMessage
 *fill*         0x00000000000188ac        0x4 
 .text.appletProcessMessage
                0x00000000000188b0      0x118 E:/SmashProjects/EveryoneHasWitchTime/code-mod-framework/lib/libnx_min/nx/lib\libnx_min.a(applet.o)
                0x00000000000188b0                appletProcessMessage
 *fill*         0x00000000000189c8        0x8 
 .text.appletMainLoop
                0x00000000000189d0       0x34 E:/SmashProjects/EveryoneHasWitchTime/code-mod-framework/lib/libnx_min/nx/lib\libnx_min.a(applet.o)
                0x00000000000189d0                appletMainLoop
 *fill*         0x0000000000018a04        0xc 
 .text.__syscall_exit
                0x0000000000018a10       0x1c E:/SmashProjects/EveryoneHasWitchTime/code-mod-framework/lib/libnx_min/nx/lib\libnx_min.a(newlib.o)
                0x0000000000018a10                __syscall_exit
 *fill*         0x0000000000018a2c        0x4 
 .text.__syscall_getreent
                0x0000000000018a30       0x10 E:/SmashProjects/EveryoneHasWitchTime/code-mod-framework/lib/libnx_min/nx/lib\libnx_min.a(newlib.o)
                0x0000000000018a30                __syscall_getreent
 .text.__syscall_lock_acquire
                0x0000000000018a40        0x4 E:/SmashProjects/EveryoneHasWitchTime/code-mod-framework/lib/libnx_min/nx/lib\libnx_min.a(newlib.o)
                0x0000000000018a40                __syscall_lock_acquire
 *fill*         0x0000000000018a44        0xc 
 .text.__syscall_lock_try_acquire
                0x0000000000018a50       0x1c E:/SmashProjects/EveryoneHasWitchTime/code-mod-framework/lib/libnx_min/nx/lib\libnx_min.a(newlib.o)
                0x0000000000018a50                __syscall_lock_try_acquire
 *fill*         0x0000000000018a6c        0x4 
 .text.__syscall_lock_release
                0x0000000000018a70        0x4 E:/SmashProjects/EveryoneHasWitchTime/code-mod-framework/lib/libnx_min/nx/lib\libnx_min.a(newlib.o)
                0x0000000000018a70                __syscall_lock_release
 *fill*         0x0000000000018a74        0xc 
 .text.__syscall_lock_acquire_recursive
                0x0000000000018a80        0x4 E:/SmashProjects/EveryoneHasWitchTime/code-mod-framework/lib/libnx_min/nx/lib\libnx_min.a(newlib.o)
                0x0000000000018a80                __syscall_lock_acquire_recursive
 *fill*         0x0000000000018a84        0xc 
 .text.__syscall_lock_try_acquire_recursive
                0x0000000000018a90       0x1c E:/SmashProjects/EveryoneHasWitchTime/code-mod-framework/lib/libnx_min/nx/lib\libnx_min.a(newlib.o)
                0x0000000000018a90                __syscall_lock_try_acquire_recursive
 *fill*         0x0000000000018aac        0x4 
 .text.__syscall_lock_release_recursive
                0x0000000000018ab0        0x4 E:/SmashProjects/EveryoneHasWitchTime/code-mod-framework/lib/libnx_min/nx/lib\libnx_min.a(newlib.o)
                0x0000000000018ab0                __syscall_lock_release_recursive
 *fill*         0x0000000000018ab4        0xc 
 .text.__syscall_cond_signal
                0x0000000000018ac0       0x40 E:/SmashProjects/EveryoneHasWitchTime/code-mod-framework/lib/libnx_min/nx/lib\libnx_min.a(newlib.o)
                0x0000000000018ac0                __syscall_cond_signal
 .text.__syscall_cond_broadcast
                0x0000000000018b00       0x40 E:/SmashProjects/EveryoneHasWitchTime/code-mod-framework/lib/libnx_min/nx/lib\libnx_min.a(newlib.o)
                0x0000000000018b00                __syscall_cond_broadcast
 .text.__syscall_cond_wait
                0x0000000000018b40       0x3c E:/SmashProjects/EveryoneHasWitchTime/code-mod-framework/lib/libnx_min/nx/lib\libnx_min.a(newlib.o)
                0x0000000000018b40                __syscall_cond_wait
 *fill*         0x0000000000018b7c        0x4 
 .text.__syscall_cond_wait_recursive
                0x0000000000018b80       0x64 E:/SmashProjects/EveryoneHasWitchTime/code-mod-framework/lib/libnx_min/nx/lib\libnx_min.a(newlib.o)
                0x0000000000018b80                __syscall_cond_wait_recursive
 *fill*         0x0000000000018be4        0xc 
 .text.__syscall_thread_self
                0x0000000000018bf0       0x14 E:/SmashProjects/EveryoneHasWitchTime/code-mod-framework/lib/libnx_min/nx/lib\libnx_min.a(newlib.o)
                0x0000000000018bf0                __syscall_thread_self
 *fill*         0x0000000000018c04        0xc 
 .text.__syscall_thread_exit
                0x0000000000018c10       0x2c E:/SmashProjects/EveryoneHasWitchTime/code-mod-framework/lib/libnx_min/nx/lib\libnx_min.a(newlib.o)
                0x0000000000018c10                __syscall_thread_exit
 *fill*         0x0000000000018c3c        0x4 
 .text.__thread_entry
                0x0000000000018c40       0x58 E:/SmashProjects/EveryoneHasWitchTime/code-mod-framework/lib/libnx_min/nx/lib\libnx_min.a(newlib.o)
 *fill*         0x0000000000018c98        0x8 
 .text.__syscall_thread_create
                0x0000000000018ca0      0x15c E:/SmashProjects/EveryoneHasWitchTime/code-mod-framework/lib/libnx_min/nx/lib\libnx_min.a(newlib.o)
                0x0000000000018ca0                __syscall_thread_create
 *fill*         0x0000000000018dfc        0x4 
 .text.__syscall_thread_join
                0x0000000000018e00       0x58 E:/SmashProjects/EveryoneHasWitchTime/code-mod-framework/lib/libnx_min/nx/lib\libnx_min.a(newlib.o)
                0x0000000000018e00                __syscall_thread_join
 *fill*         0x0000000000018e58        0x8 
 .text.__syscall_tls_create
                0x0000000000018e60       0x44 E:/SmashProjects/EveryoneHasWitchTime/code-mod-framework/lib/libnx_min/nx/lib\libnx_min.a(newlib.o)
                0x0000000000018e60                __syscall_tls_create
 *fill*         0x0000000000018ea4        0xc 
 .text.__syscall_tls_set
                0x0000000000018eb0       0x18 E:/SmashProjects/EveryoneHasWitchTime/code-mod-framework/lib/libnx_min/nx/lib\libnx_min.a(newlib.o)
                0x0000000000018eb0                __syscall_tls_set
 *fill*         0x0000000000018ec8        0x8 
 .text.__syscall_tls_get
                0x0000000000018ed0        0x4 E:/SmashProjects/EveryoneHasWitchTime/code-mod-framework/lib/libnx_min/nx/lib\libnx_min.a(newlib.o)
                0x0000000000018ed0                __syscall_tls_get
 *fill*         0x0000000000018ed4        0xc 
 .text.__syscall_tls_delete
                0x0000000000018ee0       0x18 E:/SmashProjects/EveryoneHasWitchTime/code-mod-framework/lib/libnx_min/nx/lib\libnx_min.a(newlib.o)
                0x0000000000018ee0                __syscall_tls_delete
 *fill*         0x0000000000018ef8        0x8 
 .text.sched_yield
                0x0000000000018f00       0x1c E:/SmashProjects/EveryoneHasWitchTime/code-mod-framework/lib/libnx_min/nx/lib\libnx_min.a(newlib.o)
                0x0000000000018f00                sched_yield
 *fill*         0x0000000000018f1c        0x4 
 .text.sched_getcpu
                0x0000000000018f20        0x4 E:/SmashProjects/EveryoneHasWitchTime/code-mod-framework/lib/libnx_min/nx/lib\libnx_min.a(newlib.o)
                0x0000000000018f20                sched_getcpu
 *fill*         0x0000000000018f24        0xc 
 .text.__libnx_init_time
                0x0000000000018f30      0x27c E:/SmashProjects/EveryoneHasWitchTime/code-mod-framework/lib/libnx_min/nx/lib\libnx_min.a(newlib.o)
                0x0000000000018f30                __libnx_init_time
 *fill*         0x00000000000191ac        0x4 
 .text.__syscall_clock_getres
                0x00000000000191b0       0x58 E:/SmashProjects/EveryoneHasWitchTime/code-mod-framework/lib/libnx_min/nx/lib\libnx_min.a(newlib.o)
                0x00000000000191b0                __syscall_clock_getres
 *fill*         0x0000000000019208        0x8 
 .text.__syscall_clock_gettime
                0x0000000000019210       0xf8 E:/SmashProjects/EveryoneHasWitchTime/code-mod-framework/lib/libnx_min/nx/lib\libnx_min.a(newlib.o)
                0x0000000000019210                __syscall_clock_gettime
 *fill*         0x0000000000019308        0x8 
 .text.__syscall_gettod_r
                0x0000000000019310       0x8c E:/SmashProjects/EveryoneHasWitchTime/code-mod-framework/lib/libnx_min/nx/lib\libnx_min.a(newlib.o)
                0x0000000000019310                __syscall_gettod_r
 *fill*         0x000000000001939c        0x4 
 .text.__syscall_nanosleep
                0x00000000000193a0       0x5c E:/SmashProjects/EveryoneHasWitchTime/code-mod-framework/lib/libnx_min/nx/lib\libnx_min.a(newlib.o)
                0x00000000000193a0                __syscall_nanosleep
 *fill*         0x00000000000193fc        0x4 
 .text.newlibSetup
                0x0000000000019400       0x74 E:/SmashProjects/EveryoneHasWitchTime/code-mod-framework/lib/libnx_min/nx/lib\libnx_min.a(newlib.o)
                0x0000000000019400                newlibSetup
 *fill*         0x0000000000019474        0xc 
 .text.threadCreate
                0x0000000000019480      0x1fc E:/SmashProjects/EveryoneHasWitchTime/code-mod-framework/lib/libnx_min/nx/lib\libnx_min.a(thread.o)
                0x0000000000019480                threadCreate
 *fill*         0x000000000001967c        0x4 
 .text.threadExit
                0x0000000000019680       0xb0 E:/SmashProjects/EveryoneHasWitchTime/code-mod-framework/lib/libnx_min/nx/lib\libnx_min.a(thread.o)
                0x0000000000019680                threadExit
 .text._EntryWrap
                0x0000000000019730       0x90 E:/SmashProjects/EveryoneHasWitchTime/code-mod-framework/lib/libnx_min/nx/lib\libnx_min.a(thread.o)
 .text.threadStart
                0x00000000000197c0        0x8 E:/SmashProjects/EveryoneHasWitchTime/code-mod-framework/lib/libnx_min/nx/lib\libnx_min.a(thread.o)
                0x00000000000197c0                threadStart
 *fill*         0x00000000000197c8        0x8 
 .text.threadWaitForExit
                0x00000000000197d0       0x2c E:/SmashProjects/EveryoneHasWitchTime/code-mod-framework/lib/libnx_min/nx/lib\libnx_min.a(thread.o)
                0x00000000000197d0                threadWaitForExit
 *fill*         0x00000000000197fc        0x4 
 .text.threadClose
                0x0000000000019800       0x54 E:/SmashProjects/EveryoneHasWitchTime/code-mod-framework/lib/libnx_min/nx/lib\libnx_min.a(thread.o)
                0x0000000000019800                threadClose
 *fill*         0x0000000000019854        0xc 
 .text.threadPause
                0x0000000000019860        0xc E:/SmashProjects/EveryoneHasWitchTime/code-mod-framework/lib/libnx_min/nx/lib\libnx_min.a(thread.o)
                0x0000000000019860                threadPause
 *fill*         0x000000000001986c        0x4 
 .text.threadResume
                0x0000000000019870        0xc E:/SmashProjects/EveryoneHasWitchTime/code-mod-framework/lib/libnx_min/nx/lib\libnx_min.a(thread.o)
                0x0000000000019870                threadResume
 *fill*         0x000000000001987c        0x4 
 .text.threadDumpContext
                0x0000000000019880        0x8 E:/SmashProjects/EveryoneHasWitchTime/code-mod-framework/lib/libnx_min/nx/lib\libnx_min.a(thread.o)
                0x0000000000019880                threadDumpContext
 *fill*         0x0000000000019888        0x8 
 .text.threadGetCurHandle
                0x0000000000019890        0xc E:/SmashProjects/EveryoneHasWitchTime/code-mod-framework/lib/libnx_min/nx/lib\libnx_min.a(thread.o)
                0x0000000000019890                threadGetCurHandle
 *fill*         0x000000000001989c        0x4 
 .text.threadTlsGet
                0x00000000000198a0       0x10 E:/SmashProjects/EveryoneHasWitchTime/code-mod-framework/lib/libnx_min/nx/lib\libnx_min.a(thread.o)
                0x00000000000198a0                threadTlsGet
 .text.threadTlsSet
                0x00000000000198b0       0x10 E:/SmashProjects/EveryoneHasWitchTime/code-mod-framework/lib/libnx_min/nx/lib\libnx_min.a(thread.o)
                0x00000000000198b0                threadTlsSet
 .text.threadTlsAlloc
                0x00000000000198c0       0xd8 E:/SmashProjects/EveryoneHasWitchTime/code-mod-framework/lib/libnx_min/nx/lib\libnx_min.a(thread.o)
                0x00000000000198c0                threadTlsAlloc
 *fill*         0x0000000000019998        0x8 
 .text.threadTlsFree
                0x00000000000199a0       0x48 E:/SmashProjects/EveryoneHasWitchTime/code-mod-framework/lib/libnx_min/nx/lib\libnx_min.a(thread.o)
                0x00000000000199a0                threadTlsFree
 *fill*         0x00000000000199e8        0x8 
 .text.condvarWaitTimeout
                0x00000000000199f0       0x60 E:/SmashProjects/EveryoneHasWitchTime/code-mod-framework/lib/libnx_min/nx/lib\libnx_min.a(condvar.o)
                0x00000000000199f0                condvarWaitTimeout
 .text.eventCreate
                0x0000000000019a50       0x38 E:/SmashProjects/EveryoneHasWitchTime/code-mod-framework/lib/libnx_min/nx/lib\libnx_min.a(event.o)
                0x0000000000019a50                eventCreate
 *fill*         0x0000000000019a88        0x8 
 .text.eventLoadRemote
                0x0000000000019a90        0xc E:/SmashProjects/EveryoneHasWitchTime/code-mod-framework/lib/libnx_min/nx/lib\libnx_min.a(event.o)
                0x0000000000019a90                eventLoadRemote
 *fill*         0x0000000000019a9c        0x4 
 .text.eventWait
                0x0000000000019aa0       0x38 E:/SmashProjects/EveryoneHasWitchTime/code-mod-framework/lib/libnx_min/nx/lib\libnx_min.a(event.o)
                0x0000000000019aa0                eventWait
 *fill*         0x0000000000019ad8        0x8 
 .text.eventFire
                0x0000000000019ae0       0x14 E:/SmashProjects/EveryoneHasWitchTime/code-mod-framework/lib/libnx_min/nx/lib\libnx_min.a(event.o)
                0x0000000000019ae0                eventFire
 *fill*         0x0000000000019af4        0xc 
 .text.eventClear
                0x0000000000019b00       0x24 E:/SmashProjects/EveryoneHasWitchTime/code-mod-framework/lib/libnx_min/nx/lib\libnx_min.a(event.o)
                0x0000000000019b00                eventClear
 *fill*         0x0000000000019b24        0xc 
 .text.eventClose
                0x0000000000019b30       0x50 E:/SmashProjects/EveryoneHasWitchTime/code-mod-framework/lib/libnx_min/nx/lib\libnx_min.a(event.o)
                0x0000000000019b30                eventClose
 .text.tmemCreate
                0x0000000000019b80       0xa8 E:/SmashProjects/EveryoneHasWitchTime/code-mod-framework/lib/libnx_min/nx/lib\libnx_min.a(tmem.o)
                0x0000000000019b80                tmemCreate
 *fill*         0x0000000000019c28        0x8 
 .text.tmemCreateFromMemory
                0x0000000000019c30       0x2c E:/SmashProjects/EveryoneHasWitchTime/code-mod-framework/lib/libnx_min/nx/lib\libnx_min.a(tmem.o)
                0x0000000000019c30                tmemCreateFromMemory
 *fill*         0x0000000000019c5c        0x4 
 .text.tmemLoadRemote
                0x0000000000019c60       0x14 E:/SmashProjects/EveryoneHasWitchTime/code-mod-framework/lib/libnx_min/nx/lib\libnx_min.a(tmem.o)
                0x0000000000019c60                tmemLoadRemote
 *fill*         0x0000000000019c74        0xc 
 .text.tmemMap  0x0000000000019c80       0x84 E:/SmashProjects/EveryoneHasWitchTime/code-mod-framework/lib/libnx_min/nx/lib\libnx_min.a(tmem.o)
                0x0000000000019c80                tmemMap
 *fill*         0x0000000000019d04        0xc 
 .text.tmemUnmap
                0x0000000000019d10       0x58 E:/SmashProjects/EveryoneHasWitchTime/code-mod-framework/lib/libnx_min/nx/lib\libnx_min.a(tmem.o)
                0x0000000000019d10                tmemUnmap
 *fill*         0x0000000000019d68        0x8 
 .text.tmemClose
                0x0000000000019d70       0x68 E:/SmashProjects/EveryoneHasWitchTime/code-mod-framework/lib/libnx_min/nx/lib\libnx_min.a(tmem.o)
                0x0000000000019d70                tmemClose
 *fill*         0x0000000000019dd8        0x8 
 .text.rwlockInit
                0x0000000000019de0        0x8 E:/SmashProjects/EveryoneHasWitchTime/code-mod-framework/lib/libnx_min/nx/lib\libnx_min.a(rwlock.o)
                0x0000000000019de0                rwlockInit
 *fill*         0x0000000000019de8        0x8 
 .text.rwlockReadLock
                0x0000000000019df0       0x58 E:/SmashProjects/EveryoneHasWitchTime/code-mod-framework/lib/libnx_min/nx/lib\libnx_min.a(rwlock.o)
                0x0000000000019df0                rwlockReadLock
 *fill*         0x0000000000019e48        0x8 
 .text.rwlockReadUnlock
                0x0000000000019e50       0x5c E:/SmashProjects/EveryoneHasWitchTime/code-mod-framework/lib/libnx_min/nx/lib\libnx_min.a(rwlock.o)
                0x0000000000019e50                rwlockReadUnlock
 *fill*         0x0000000000019eac        0x4 
 .text.rwlockWriteLock
                0x0000000000019eb0       0x84 E:/SmashProjects/EveryoneHasWitchTime/code-mod-framework/lib/libnx_min/nx/lib\libnx_min.a(rwlock.o)
                0x0000000000019eb0                rwlockWriteLock
 *fill*         0x0000000000019f34        0xc 
 .text.rwlockWriteUnlock
                0x0000000000019f40       0x3c E:/SmashProjects/EveryoneHasWitchTime/code-mod-framework/lib/libnx_min/nx/lib\libnx_min.a(rwlock.o)
                0x0000000000019f40                rwlockWriteUnlock
 *fill*         0x0000000000019f7c        0x4 
 .text._waitLoop
                0x0000000000019f80      0x104 E:/SmashProjects/EveryoneHasWitchTime/code-mod-framework/lib/libnx_min/nx/lib\libnx_min.a(wait.o)
 *fill*         0x000000000001a084        0xc 
 .text._waitObjectsImpl
                0x000000000001a090      0x338 E:/SmashProjects/EveryoneHasWitchTime/code-mod-framework/lib/libnx_min/nx/lib\libnx_min.a(wait.o)
 *fill*         0x000000000001a3c8        0x8 
 .text.waitObjects
                0x000000000001a3d0        0xc E:/SmashProjects/EveryoneHasWitchTime/code-mod-framework/lib/libnx_min/nx/lib\libnx_min.a(wait.o)
                0x000000000001a3d0                waitObjects
 *fill*         0x000000000001a3dc        0x4 
 .text.waitHandles
                0x000000000001a3e0        0xc E:/SmashProjects/EveryoneHasWitchTime/code-mod-framework/lib/libnx_min/nx/lib\libnx_min.a(wait.o)
                0x000000000001a3e0                waitHandles
 *fill*         0x000000000001a3ec        0x4 
 .text.shmemCreate
                0x000000000001a3f0       0x14 E:/SmashProjects/EveryoneHasWitchTime/code-mod-framework/lib/libnx_min/nx/lib\libnx_min.a(shmem.o)
                0x000000000001a3f0                shmemCreate
 *fill*         0x000000000001a404        0xc 
 .text.shmemLoadRemote
                0x000000000001a410       0x14 E:/SmashProjects/EveryoneHasWitchTime/code-mod-framework/lib/libnx_min/nx/lib\libnx_min.a(shmem.o)
                0x000000000001a410                shmemLoadRemote
 *fill*         0x000000000001a424        0xc 
 .text.shmemMap
                0x000000000001a430       0x84 E:/SmashProjects/EveryoneHasWitchTime/code-mod-framework/lib/libnx_min/nx/lib\libnx_min.a(shmem.o)
                0x000000000001a430                shmemMap
 *fill*         0x000000000001a4b4        0xc 
 .text.shmemUnmap
                0x000000000001a4c0       0x58 E:/SmashProjects/EveryoneHasWitchTime/code-mod-framework/lib/libnx_min/nx/lib\libnx_min.a(shmem.o)
                0x000000000001a4c0                shmemUnmap
 *fill*         0x000000000001a518        0x8 
 .text.shmemClose
                0x000000000001a520       0x44 E:/SmashProjects/EveryoneHasWitchTime/code-mod-framework/lib/libnx_min/nx/lib\libnx_min.a(shmem.o)
                0x000000000001a520                shmemClose
 *fill*         0x000000000001a564        0xc 
 .text.detectKernelVersion
                0x000000000001a570      0x17c E:/SmashProjects/EveryoneHasWitchTime/code-mod-framework/lib/libnx_min/nx/lib\libnx_min.a(detect.o)
                0x000000000001a570                detectKernelVersion
 *fill*         0x000000000001a6ec        0x4 
 .text.detectDebugger
                0x000000000001a6f0       0x30 E:/SmashProjects/EveryoneHasWitchTime/code-mod-framework/lib/libnx_min/nx/lib\libnx_min.a(detect.o)
                0x000000000001a6f0                detectDebugger
 .text.detectJitKernelPatch
                0x000000000001a720       0xdc E:/SmashProjects/EveryoneHasWitchTime/code-mod-framework/lib/libnx_min/nx/lib\libnx_min.a(detect.o)
                0x000000000001a720                detectJitKernelPatch
 *fill*         0x000000000001a7fc        0x4 
 .text.detectIgnoreJitKernelPatch
                0x000000000001a800       0x44 E:/SmashProjects/EveryoneHasWitchTime/code-mod-framework/lib/libnx_min/nx/lib\libnx_min.a(detect.o)
                0x000000000001a800                detectIgnoreJitKernelPatch
 *fill*         0x000000000001a844        0xc 
 .text.ipcCloseObjectById
                0x000000000001a850       0x34 E:/SmashProjects/EveryoneHasWitchTime/code-mod-framework/lib/libnx_min/nx/lib\libnx_min.a(apm.o)
 *fill*         0x000000000001a884        0xc 
 .text._apmGetSession.constprop.4
                0x000000000001a890      0x124 E:/SmashProjects/EveryoneHasWitchTime/code-mod-framework/lib/libnx_min/nx/lib\libnx_min.a(apm.o)
 *fill*         0x000000000001a9b4        0xc 
 .text.apmExit  0x000000000001a9c0       0xf0 E:/SmashProjects/EveryoneHasWitchTime/code-mod-framework/lib/libnx_min/nx/lib\libnx_min.a(apm.o)
                0x000000000001a9c0                apmExit
 .text.apmInitialize
                0x000000000001aab0       0x70 E:/SmashProjects/EveryoneHasWitchTime/code-mod-framework/lib/libnx_min/nx/lib\libnx_min.a(apm.o)
                0x000000000001aab0                apmInitialize
 .text.apmSetPerformanceConfiguration
                0x000000000001ab20       0xcc E:/SmashProjects/EveryoneHasWitchTime/code-mod-framework/lib/libnx_min/nx/lib\libnx_min.a(apm.o)
                0x000000000001ab20                apmSetPerformanceConfiguration
 *fill*         0x000000000001abec        0x4 
 .text.apmGetPerformanceConfiguration
                0x000000000001abf0       0xf4 E:/SmashProjects/EveryoneHasWitchTime/code-mod-framework/lib/libnx_min/nx/lib\libnx_min.a(apm.o)
                0x000000000001abf0                apmGetPerformanceConfiguration
 *fill*         0x000000000001ace4        0x4 
 .text.bsearch  0x000000000001ace8       0xb8 e:/appsprograms/devkitpro/devkita64/bin/../lib/gcc/aarch64-none-elf/8.3.0/../../../../aarch64-none-elf/lib/pic\libg.a(lib_a-bsearch.o)
                0x000000000001ace8                bsearch
 .text.__set_ctype
                0x000000000001ada0       0x10 e:/appsprograms/devkitpro/devkita64/bin/../lib/gcc/aarch64-none-elf/8.3.0/../../../../aarch64-none-elf/lib/pic\libg.a(lib_a-ctype_.o)
                0x000000000001ada0                __set_ctype
 .text.__errno  0x000000000001adb0       0x14 e:/appsprograms/devkitpro/devkita64/bin/../lib/gcc/aarch64-none-elf/8.3.0/../../../../aarch64-none-elf/lib/pic\libg.a(lib_a-errno.o)
                0x000000000001adb0                __errno
 *fill*         0x000000000001adc4        0x4 
 .text.__libc_fini_array
                0x000000000001adc8       0x44 e:/appsprograms/devkitpro/devkita64/bin/../lib/gcc/aarch64-none-elf/8.3.0/../../../../aarch64-none-elf/lib/pic\libg.a(lib_a-fini.o)
                0x000000000001adc8                __libc_fini_array
 *fill*         0x000000000001ae0c        0x4 
 .text.__libc_init_array
                0x000000000001ae10       0x8c e:/appsprograms/devkitpro/devkita64/bin/../lib/gcc/aarch64-none-elf/8.3.0/../../../../aarch64-none-elf/lib/pic\libg.a(lib_a-init.o)
                0x000000000001ae10                __libc_init_array
 *fill*         0x000000000001ae9c        0x4 
 .text.memalign
                0x000000000001aea0       0x30 e:/appsprograms/devkitpro/devkita64/bin/../lib/gcc/aarch64-none-elf/8.3.0/../../../../aarch64-none-elf/lib/pic\libg.a(lib_a-malign.o)
                0x000000000001aea0                memalign
 .text._memalign_r
                0x000000000001aed0      0x198 e:/appsprograms/devkitpro/devkita64/bin/../lib/gcc/aarch64-none-elf/8.3.0/../../../../aarch64-none-elf/lib/pic\libg.a(lib_a-malignr.o)
                0x000000000001aed0                _memalign_r
 .text.malloc   0x000000000001b068       0x1c e:/appsprograms/devkitpro/devkita64/bin/../lib/gcc/aarch64-none-elf/8.3.0/../../../../aarch64-none-elf/lib/pic\libg.a(lib_a-malloc.o)
                0x000000000001b068                malloc
 *fill*         0x000000000001b084        0x4 
 .text.free     0x000000000001b088       0x1c e:/appsprograms/devkitpro/devkita64/bin/../lib/gcc/aarch64-none-elf/8.3.0/../../../../aarch64-none-elf/lib/pic\libg.a(lib_a-malloc.o)
                0x000000000001b088                free
 *fill*         0x000000000001b0a4        0x4 
 .text._malloc_r
                0x000000000001b0a8      0x87c e:/appsprograms/devkitpro/devkita64/bin/../lib/gcc/aarch64-none-elf/8.3.0/../../../../aarch64-none-elf/lib/pic\libg.a(lib_a-mallocr.o)
                0x000000000001b0a8                _malloc_r
 *fill*         0x000000000001b924       0x1c 
 .text          0x000000000001b940      0x16c e:/appsprograms/devkitpro/devkita64/bin/../lib/gcc/aarch64-none-elf/8.3.0/../../../../aarch64-none-elf/lib/pic\libg.a(lib_a-memcpy.o)
                0x000000000001b940                memcpy
 *fill*         0x000000000001baac       0x14 
 .text          0x000000000001bac0      0x1dc e:/appsprograms/devkitpro/devkita64/bin/../lib/gcc/aarch64-none-elf/8.3.0/../../../../aarch64-none-elf/lib/pic\libg.a(lib_a-memset.o)
                0x000000000001bac0                memset
 *fill*         0x000000000001bc9c        0x4 
 .text.__malloc_lock
                0x000000000001bca0        0xc e:/appsprograms/devkitpro/devkita64/bin/../lib/gcc/aarch64-none-elf/8.3.0/../../../../aarch64-none-elf/lib/pic\libg.a(lib_a-mlock.o)
                0x000000000001bca0                __malloc_lock
 *fill*         0x000000000001bcac        0x4 
 .text.__malloc_unlock
                0x000000000001bcb0        0xc e:/appsprograms/devkitpro/devkita64/bin/../lib/gcc/aarch64-none-elf/8.3.0/../../../../aarch64-none-elf/lib/pic\libg.a(lib_a-mlock.o)
                0x000000000001bcb0                __malloc_unlock
 *fill*         0x000000000001bcbc        0x4 
 .text.setenv   0x000000000001bcc0       0x3c e:/appsprograms/devkitpro/devkita64/bin/../lib/gcc/aarch64-none-elf/8.3.0/../../../../aarch64-none-elf/lib/pic\libg.a(lib_a-setenv.o)
                0x000000000001bcc0                setenv
 *fill*         0x000000000001bcfc        0x4 
 .text.unsetenv
                0x000000000001bd00       0x1c e:/appsprograms/devkitpro/devkita64/bin/../lib/gcc/aarch64-none-elf/8.3.0/../../../../aarch64-none-elf/lib/pic\libg.a(lib_a-setenv.o)
                0x000000000001bd00                unsetenv
 *fill*         0x000000000001bd1c        0x4 
 .text._setenv_r
                0x000000000001bd20      0x264 e:/appsprograms/devkitpro/devkita64/bin/../lib/gcc/aarch64-none-elf/8.3.0/../../../../aarch64-none-elf/lib/pic\libg.a(lib_a-setenv_r.o)
                0x000000000001bd20                _setenv_r
 *fill*         0x000000000001bf84        0x4 
 .text._unsetenv_r
                0x000000000001bf88       0xd4 e:/appsprograms/devkitpro/devkita64/bin/../lib/gcc/aarch64-none-elf/8.3.0/../../../../aarch64-none-elf/lib/pic\libg.a(lib_a-setenv_r.o)
                0x000000000001bf88                _unsetenv_r
 .text          0x000000000001c05c       0xdc e:/appsprograms/devkitpro/devkita64/bin/../lib/gcc/aarch64-none-elf/8.3.0/../../../../aarch64-none-elf/lib/pic\libg.a(lib_a-strchr.o)
                0x000000000001c05c                strchr
 *fill*         0x000000000001c138        0x8 
 .text          0x000000000001c140       0xe4 e:/appsprograms/devkitpro/devkita64/bin/../lib/gcc/aarch64-none-elf/8.3.0/../../../../aarch64-none-elf/lib/pic\libg.a(lib_a-strcmp.o)
                0x000000000001c140                strcmp
 *fill*         0x000000000001c224       0x1c 
 .text          0x000000000001c240      0x1b8 e:/appsprograms/devkitpro/devkita64/bin/../lib/gcc/aarch64-none-elf/8.3.0/../../../../aarch64-none-elf/lib/pic\libg.a(lib_a-strcpy.o)
                0x000000000001c240                strcpy
 *fill*         0x000000000001c3f8        0x8 
 .text          0x000000000001c400      0x140 e:/appsprograms/devkitpro/devkita64/bin/../lib/gcc/aarch64-none-elf/8.3.0/../../../../aarch64-none-elf/lib/pic\libg.a(lib_a-strlen.o)
                0x000000000001c400                strlen
 .text.strncat  0x000000000001c540       0x84 e:/appsprograms/devkitpro/devkita64/bin/../lib/gcc/aarch64-none-elf/8.3.0/../../../../aarch64-none-elf/lib/pic\libg.a(lib_a-strncat.o)
                0x000000000001c540                strncat
 *fill*         0x000000000001c5c4       0x3c 
 .text          0x000000000001c600      0x1d4 e:/appsprograms/devkitpro/devkita64/bin/../lib/gcc/aarch64-none-elf/8.3.0/../../../../aarch64-none-elf/lib/pic\libg.a(lib_a-strncmp.o)
                0x000000000001c61c                strncmp
 *fill*         0x000000000001c7d4        0x4 
 .text.strncpy  0x000000000001c7d8       0xa8 e:/appsprograms/devkitpro/devkita64/bin/../lib/gcc/aarch64-none-elf/8.3.0/../../../../aarch64-none-elf/lib/pic\libg.a(lib_a-strncpy.o)
                0x000000000001c7d8                strncpy
 .text          0x000000000001c880       0xe0 e:/appsprograms/devkitpro/devkita64/bin/../lib/gcc/aarch64-none-elf/8.3.0/../../../../aarch64-none-elf/lib/pic\libg.a(lib_a-strnlen.o)
                0x000000000001c8a4                strnlen
 .text.toupper  0x000000000001c960       0x24 e:/appsprograms/devkitpro/devkita64/bin/../lib/gcc/aarch64-none-elf/8.3.0/../../../../aarch64-none-elf/lib/pic\libg.a(lib_a-toupper.o)
                0x000000000001c960                toupper
 *fill*         0x000000000001c984        0x4 
 .text._vsnprintf_r
                0x000000000001c988       0xe0 e:/appsprograms/devkitpro/devkita64/bin/../lib/gcc/aarch64-none-elf/8.3.0/../../../../aarch64-none-elf/lib/pic\libg.a(lib_a-vsnprintf.o)
                0x000000000001c988                _vsnprintf_r
 .text.vsnprintf
                0x000000000001ca68       0x50 e:/appsprograms/devkitpro/devkita64/bin/../lib/gcc/aarch64-none-elf/8.3.0/../../../../aarch64-none-elf/lib/pic\libg.a(lib_a-vsnprintf.o)
                0x000000000001ca68                vsnprintf
 .text.__call_exitprocs
                0x000000000001cab8      0x124 e:/appsprograms/devkitpro/devkita64/bin/../lib/gcc/aarch64-none-elf/8.3.0/../../../../aarch64-none-elf/lib/pic\libg.a(lib_a-__call_atexit.o)
                0x000000000001cab8                __call_exitprocs
 *fill*         0x000000000001cbdc        0x4 
 .text.__env_lock
                0x000000000001cbe0        0xc e:/appsprograms/devkitpro/devkita64/bin/../lib/gcc/aarch64-none-elf/8.3.0/../../../../aarch64-none-elf/lib/pic\libg.a(lib_a-envlock.o)
                0x000000000001cbe0                __env_lock
 *fill*         0x000000000001cbec        0x4 
 .text.__env_unlock
                0x000000000001cbf0        0xc e:/appsprograms/devkitpro/devkita64/bin/../lib/gcc/aarch64-none-elf/8.3.0/../../../../aarch64-none-elf/lib/pic\libg.a(lib_a-envlock.o)
                0x000000000001cbf0                __env_unlock
 *fill*         0x000000000001cbfc        0x4 
 .text._malloc_trim_r
                0x000000000001cc00      0x118 e:/appsprograms/devkitpro/devkita64/bin/../lib/gcc/aarch64-none-elf/8.3.0/../../../../aarch64-none-elf/lib/pic\libg.a(lib_a-freer.o)
                0x000000000001cc00                _malloc_trim_r
 .text._free_r  0x000000000001cd18      0x2f4 e:/appsprograms/devkitpro/devkita64/bin/../lib/gcc/aarch64-none-elf/8.3.0/../../../../aarch64-none-elf/lib/pic\libg.a(lib_a-freer.o)
                0x000000000001cd18                _free_r
 *fill*         0x000000000001d00c        0x4 
 .text._findenv_r
                0x000000000001d010      0x100 e:/appsprograms/devkitpro/devkita64/bin/../lib/gcc/aarch64-none-elf/8.3.0/../../../../aarch64-none-elf/lib/pic\libg.a(lib_a-getenv_r.o)
                0x000000000001d010                _findenv_r
 .text._getenv_r
                0x000000000001d110       0x18 e:/appsprograms/devkitpro/devkita64/bin/../lib/gcc/aarch64-none-elf/8.3.0/../../../../aarch64-none-elf/lib/pic\libg.a(lib_a-getenv_r.o)
                0x000000000001d110                _getenv_r
 .text._realloc_r
                0x000000000001d128      0x56c e:/appsprograms/devkitpro/devkita64/bin/../lib/gcc/aarch64-none-elf/8.3.0/../../../../aarch64-none-elf/lib/pic\libg.a(lib_a-reallocr.o)
                0x000000000001d128                _realloc_r
 .text.get_arg  0x000000000001d694      0x76c e:/appsprograms/devkitpro/devkita64/bin/../lib/gcc/aarch64-none-elf/8.3.0/../../../../aarch64-none-elf/lib/pic\libg.a(lib_a-svfprintf.o)
 .text._svfprintf_r
                0x000000000001de00     0x3b38 e:/appsprograms/devkitpro/devkita64/bin/../lib/gcc/aarch64-none-elf/8.3.0/../../../../aarch64-none-elf/lib/pic\libg.a(lib_a-svfprintf.o)
                0x000000000001de00                _svfprintf_r
 .text._wcrtomb_r
                0x0000000000021938       0xd0 e:/appsprograms/devkitpro/devkita64/bin/../lib/gcc/aarch64-none-elf/8.3.0/../../../../aarch64-none-elf/lib/pic\libg.a(lib_a-wcrtomb.o)
                0x0000000000021938                _wcrtomb_r
 .text.wcrtomb  0x0000000000021a08       0xdc e:/appsprograms/devkitpro/devkita64/bin/../lib/gcc/aarch64-none-elf/8.3.0/../../../../aarch64-none-elf/lib/pic\libg.a(lib_a-wcrtomb.o)
                0x0000000000021a08                wcrtomb
 *fill*         0x0000000000021ae4        0x4 
 .text._wcsrtombs_r
                0x0000000000021ae8       0x10 e:/appsprograms/devkitpro/devkita64/bin/../lib/gcc/aarch64-none-elf/8.3.0/../../../../aarch64-none-elf/lib/pic\libg.a(lib_a-wcsrtombs.o)
                0x0000000000021ae8                _wcsrtombs_r
 .text.wcsrtombs
                0x0000000000021af8       0x44 e:/appsprograms/devkitpro/devkita64/bin/../lib/gcc/aarch64-none-elf/8.3.0/../../../../aarch64-none-elf/lib/pic\libg.a(lib_a-wcsrtombs.o)
                0x0000000000021af8                wcsrtombs
 *fill*         0x0000000000021b3c        0x4 
 .text.quorem   0x0000000000021b40      0x1a8 e:/appsprograms/devkitpro/devkita64/bin/../lib/gcc/aarch64-none-elf/8.3.0/../../../../aarch64-none-elf/lib/pic\libg.a(lib_a-dtoa.o)
 .text._dtoa_r  0x0000000000021ce8     0x10dc e:/appsprograms/devkitpro/devkita64/bin/../lib/gcc/aarch64-none-elf/8.3.0/../../../../aarch64-none-elf/lib/pic\libg.a(lib_a-dtoa.o)
                0x0000000000021ce8                _dtoa_r
 *fill*         0x0000000000022dc4        0x4 
 .text.__localeconv_l
                0x0000000000022dc8        0x8 e:/appsprograms/devkitpro/devkita64/bin/../lib/gcc/aarch64-none-elf/8.3.0/../../../../aarch64-none-elf/lib/pic\libg.a(lib_a-localeconv.o)
                0x0000000000022dc8                __localeconv_l
 .text._localeconv_r
                0x0000000000022dd0       0x28 e:/appsprograms/devkitpro/devkita64/bin/../lib/gcc/aarch64-none-elf/8.3.0/../../../../aarch64-none-elf/lib/pic\libg.a(lib_a-localeconv.o)
                0x0000000000022dd0                _localeconv_r
 .text.localeconv
                0x0000000000022df8       0x28 e:/appsprograms/devkitpro/devkita64/bin/../lib/gcc/aarch64-none-elf/8.3.0/../../../../aarch64-none-elf/lib/pic\libg.a(lib_a-localeconv.o)
                0x0000000000022df8                localeconv
 .text.currentlocale
                0x0000000000022e20       0xb8 e:/appsprograms/devkitpro/devkita64/bin/../lib/gcc/aarch64-none-elf/8.3.0/../../../../aarch64-none-elf/lib/pic\libg.a(lib_a-locale.o)
 .text.__loadlocale
                0x0000000000022ed8      0x7a8 e:/appsprograms/devkitpro/devkita64/bin/../lib/gcc/aarch64-none-elf/8.3.0/../../../../aarch64-none-elf/lib/pic\libg.a(lib_a-locale.o)
                0x0000000000022ed8                __loadlocale
 .text.__get_locale_env
                0x0000000000023680       0x88 e:/appsprograms/devkitpro/devkita64/bin/../lib/gcc/aarch64-none-elf/8.3.0/../../../../aarch64-none-elf/lib/pic\libg.a(lib_a-locale.o)
                0x0000000000023680                __get_locale_env
 .text._setlocale_r
                0x0000000000023708      0x3a4 e:/appsprograms/devkitpro/devkita64/bin/../lib/gcc/aarch64-none-elf/8.3.0/../../../../aarch64-none-elf/lib/pic\libg.a(lib_a-locale.o)
                0x0000000000023708                _setlocale_r
 *fill*         0x0000000000023aac        0x4 
 .text.__locale_mb_cur_max
                0x0000000000023ab0       0x2c e:/appsprograms/devkitpro/devkita64/bin/../lib/gcc/aarch64-none-elf/8.3.0/../../../../aarch64-none-elf/lib/pic\libg.a(lib_a-locale.o)
                0x0000000000023ab0                __locale_mb_cur_max
 *fill*         0x0000000000023adc        0x4 
 .text.setlocale
                0x0000000000023ae0       0x30 e:/appsprograms/devkitpro/devkita64/bin/../lib/gcc/aarch64-none-elf/8.3.0/../../../../aarch64-none-elf/lib/pic\libg.a(lib_a-locale.o)
                0x0000000000023ae0                setlocale
 .text._mbtowc_r
                0x0000000000023b10       0x4c e:/appsprograms/devkitpro/devkita64/bin/../lib/gcc/aarch64-none-elf/8.3.0/../../../../aarch64-none-elf/lib/pic\libg.a(lib_a-mbtowc_r.o)
                0x0000000000023b10                _mbtowc_r
 *fill*         0x0000000000023b5c        0x4 
 .text.__ascii_mbtowc
                0x0000000000023b60       0x48 e:/appsprograms/devkitpro/devkita64/bin/../lib/gcc/aarch64-none-elf/8.3.0/../../../../aarch64-none-elf/lib/pic\libg.a(lib_a-mbtowc_r.o)
                0x0000000000023b60                __ascii_mbtowc
 .text.__utf8_mbtowc
                0x0000000000023ba8      0x2c8 e:/appsprograms/devkitpro/devkita64/bin/../lib/gcc/aarch64-none-elf/8.3.0/../../../../aarch64-none-elf/lib/pic\libg.a(lib_a-mbtowc_r.o)
                0x0000000000023ba8                __utf8_mbtowc
 .text.__sjis_mbtowc
                0x0000000000023e70       0xcc e:/appsprograms/devkitpro/devkita64/bin/../lib/gcc/aarch64-none-elf/8.3.0/../../../../aarch64-none-elf/lib/pic\libg.a(lib_a-mbtowc_r.o)
                0x0000000000023e70                __sjis_mbtowc
 *fill*         0x0000000000023f3c        0x4 
 .text.__eucjp_mbtowc
                0x0000000000023f40      0x120 e:/appsprograms/devkitpro/devkita64/bin/../lib/gcc/aarch64-none-elf/8.3.0/../../../../aarch64-none-elf/lib/pic\libg.a(lib_a-mbtowc_r.o)
                0x0000000000023f40                __eucjp_mbtowc
 .text.__jis_mbtowc
                0x0000000000024060      0x1d4 e:/appsprograms/devkitpro/devkita64/bin/../lib/gcc/aarch64-none-elf/8.3.0/../../../../aarch64-none-elf/lib/pic\libg.a(lib_a-mbtowc_r.o)
                0x0000000000024060                __jis_mbtowc
 .text          0x0000000000024234       0xd8 e:/appsprograms/devkitpro/devkita64/bin/../lib/gcc/aarch64-none-elf/8.3.0/../../../../aarch64-none-elf/lib/pic\libg.a(lib_a-memchr.o)
                0x0000000000024234                memchr
 *fill*         0x000000000002430c       0x34 
 .text          0x0000000000024340       0xac e:/appsprograms/devkitpro/devkita64/bin/../lib/gcc/aarch64-none-elf/8.3.0/../../../../aarch64-none-elf/lib/pic\libg.a(lib_a-memmove.o)
                0x0000000000024340                memmove
 *fill*         0x00000000000243ec        0x4 
 .text._Balloc  0x00000000000243f0       0x90 e:/appsprograms/devkitpro/devkita64/bin/../lib/gcc/aarch64-none-elf/8.3.0/../../../../aarch64-none-elf/lib/pic\libg.a(lib_a-mprec.o)
                0x00000000000243f0                _Balloc
 .text._Bfree   0x0000000000024480       0x1c e:/appsprograms/devkitpro/devkita64/bin/../lib/gcc/aarch64-none-elf/8.3.0/../../../../aarch64-none-elf/lib/pic\libg.a(lib_a-mprec.o)
                0x0000000000024480                _Bfree
 *fill*         0x000000000002449c        0x4 
 .text.__multadd
                0x00000000000244a0       0xe8 e:/appsprograms/devkitpro/devkita64/bin/../lib/gcc/aarch64-none-elf/8.3.0/../../../../aarch64-none-elf/lib/pic\libg.a(lib_a-mprec.o)
                0x00000000000244a0                __multadd
 .text.__s2b    0x0000000000024588      0x120 e:/appsprograms/devkitpro/devkita64/bin/../lib/gcc/aarch64-none-elf/8.3.0/../../../../aarch64-none-elf/lib/pic\libg.a(lib_a-mprec.o)
                0x0000000000024588                __s2b
 .text.__hi0bits
                0x00000000000246a8       0x5c e:/appsprograms/devkitpro/devkita64/bin/../lib/gcc/aarch64-none-elf/8.3.0/../../../../aarch64-none-elf/lib/pic\libg.a(lib_a-mprec.o)
                0x00000000000246a8                __hi0bits
 *fill*         0x0000000000024704        0x4 
 .text.__lo0bits
                0x0000000000024708       0xa0 e:/appsprograms/devkitpro/devkita64/bin/../lib/gcc/aarch64-none-elf/8.3.0/../../../../aarch64-none-elf/lib/pic\libg.a(lib_a-mprec.o)
                0x0000000000024708                __lo0bits
 .text.__i2b    0x00000000000247a8       0x2c e:/appsprograms/devkitpro/devkita64/bin/../lib/gcc/aarch64-none-elf/8.3.0/../../../../aarch64-none-elf/lib/pic\libg.a(lib_a-mprec.o)
                0x00000000000247a8                __i2b
 *fill*         0x00000000000247d4        0x4 
 .text.__multiply
                0x00000000000247d8      0x1c8 e:/appsprograms/devkitpro/devkita64/bin/../lib/gcc/aarch64-none-elf/8.3.0/../../../../aarch64-none-elf/lib/pic\libg.a(lib_a-mprec.o)
                0x00000000000247d8                __multiply
 .text.__pow5mult
                0x00000000000249a0      0x104 e:/appsprograms/devkitpro/devkita64/bin/../lib/gcc/aarch64-none-elf/8.3.0/../../../../aarch64-none-elf/lib/pic\libg.a(lib_a-mprec.o)
                0x00000000000249a0                __pow5mult
 *fill*         0x0000000000024aa4        0x4 
 .text.__lshift
                0x0000000000024aa8      0x134 e:/appsprograms/devkitpro/devkita64/bin/../lib/gcc/aarch64-none-elf/8.3.0/../../../../aarch64-none-elf/lib/pic\libg.a(lib_a-mprec.o)
                0x0000000000024aa8                __lshift
 *fill*         0x0000000000024bdc        0x4 
 .text.__mcmp   0x0000000000024be0       0x50 e:/appsprograms/devkitpro/devkita64/bin/../lib/gcc/aarch64-none-elf/8.3.0/../../../../aarch64-none-elf/lib/pic\libg.a(lib_a-mprec.o)
                0x0000000000024be0                __mcmp
 .text.__mdiff  0x0000000000024c30      0x14c e:/appsprograms/devkitpro/devkita64/bin/../lib/gcc/aarch64-none-elf/8.3.0/../../../../aarch64-none-elf/lib/pic\libg.a(lib_a-mprec.o)
                0x0000000000024c30                __mdiff
 *fill*         0x0000000000024d7c        0x4 
 .text.__ulp    0x0000000000024d80       0x68 e:/appsprograms/devkitpro/devkita64/bin/../lib/gcc/aarch64-none-elf/8.3.0/../../../../aarch64-none-elf/lib/pic\libg.a(lib_a-mprec.o)
                0x0000000000024d80                __ulp
 .text.__b2d    0x0000000000024de8      0x150 e:/appsprograms/devkitpro/devkita64/bin/../lib/gcc/aarch64-none-elf/8.3.0/../../../../aarch64-none-elf/lib/pic\libg.a(lib_a-mprec.o)
                0x0000000000024de8                __b2d
 .text.__d2b    0x0000000000024f38      0x138 e:/appsprograms/devkitpro/devkita64/bin/../lib/gcc/aarch64-none-elf/8.3.0/../../../../aarch64-none-elf/lib/pic\libg.a(lib_a-mprec.o)
                0x0000000000024f38                __d2b
 .text.__ratio  0x0000000000025070       0xa0 e:/appsprograms/devkitpro/devkita64/bin/../lib/gcc/aarch64-none-elf/8.3.0/../../../../aarch64-none-elf/lib/pic\libg.a(lib_a-mprec.o)
                0x0000000000025070                __ratio
 .text._mprec_log10
                0x0000000000025110       0x30 e:/appsprograms/devkitpro/devkita64/bin/../lib/gcc/aarch64-none-elf/8.3.0/../../../../aarch64-none-elf/lib/pic\libg.a(lib_a-mprec.o)
                0x0000000000025110                _mprec_log10
 .text.__copybits
                0x0000000000025140       0x68 e:/appsprograms/devkitpro/devkita64/bin/../lib/gcc/aarch64-none-elf/8.3.0/../../../../aarch64-none-elf/lib/pic\libg.a(lib_a-mprec.o)
                0x0000000000025140                __copybits
 .text.__any_on
                0x00000000000251a8       0x84 e:/appsprograms/devkitpro/devkita64/bin/../lib/gcc/aarch64-none-elf/8.3.0/../../../../aarch64-none-elf/lib/pic\libg.a(lib_a-mprec.o)
                0x00000000000251a8                __any_on
 *fill*         0x000000000002522c        0x4 
 .text.frexp    0x0000000000025230       0x7c e:/appsprograms/devkitpro/devkita64/bin/../lib/gcc/aarch64-none-elf/8.3.0/../../../../aarch64-none-elf/lib/pic\libg.a(lib_a-s_frexp.o)
                0x0000000000025230                frexp
 *fill*         0x00000000000252ac        0x4 
 .text.strcasecmp
                0x00000000000252b0       0x78 e:/appsprograms/devkitpro/devkita64/bin/../lib/gcc/aarch64-none-elf/8.3.0/../../../../aarch64-none-elf/lib/pic\libg.a(lib_a-strcasecmp.o)
                0x00000000000252b0                strcasecmp
 .text.strcat   0x0000000000025328       0x74 e:/appsprograms/devkitpro/devkita64/bin/../lib/gcc/aarch64-none-elf/8.3.0/../../../../aarch64-none-elf/lib/pic\libg.a(lib_a-strcat.o)
                0x0000000000025328                strcat
 *fill*         0x000000000002539c        0x4 
 .text.strlcpy  0x00000000000253a0       0x54 e:/appsprograms/devkitpro/devkita64/bin/../lib/gcc/aarch64-none-elf/8.3.0/../../../../aarch64-none-elf/lib/pic\libg.a(lib_a-strlcpy.o)
                0x00000000000253a0                strlcpy
 *fill*         0x00000000000253f4        0x4 
 .text.strncasecmp
                0x00000000000253f8       0x8c e:/appsprograms/devkitpro/devkita64/bin/../lib/gcc/aarch64-none-elf/8.3.0/../../../../aarch64-none-elf/lib/pic\libg.a(lib_a-strncasecmp.o)
                0x00000000000253f8                strncasecmp
 *fill*         0x0000000000025484        0x4 
 .text._strtol_l.isra.0
                0x0000000000025488      0x1a0 e:/appsprograms/devkitpro/devkita64/bin/../lib/gcc/aarch64-none-elf/8.3.0/../../../../aarch64-none-elf/lib/pic\libg.a(lib_a-strtol.o)
 .text._strtol_r
                0x0000000000025628       0x34 e:/appsprograms/devkitpro/devkita64/bin/../lib/gcc/aarch64-none-elf/8.3.0/../../../../aarch64-none-elf/lib/pic\libg.a(lib_a-strtol.o)
                0x0000000000025628                _strtol_r
 *fill*         0x000000000002565c        0x4 
 .text.strtol_l
                0x0000000000025660       0x3c e:/appsprograms/devkitpro/devkita64/bin/../lib/gcc/aarch64-none-elf/8.3.0/../../../../aarch64-none-elf/lib/pic\libg.a(lib_a-strtol.o)
                0x0000000000025660                strtol_l
 *fill*         0x000000000002569c        0x4 
 .text.strtol   0x00000000000256a0       0x48 e:/appsprograms/devkitpro/devkita64/bin/../lib/gcc/aarch64-none-elf/8.3.0/../../../../aarch64-none-elf/lib/pic\libg.a(lib_a-strtol.o)
                0x00000000000256a0                strtol
 .text.get_arg  0x00000000000256e8      0x76c e:/appsprograms/devkitpro/devkita64/bin/../lib/gcc/aarch64-none-elf/8.3.0/../../../../aarch64-none-elf/lib/pic\libg.a(lib_a-svfiprintf.o)
 .text.__ssprint_r
                0x0000000000025e54      0x1c0 e:/appsprograms/devkitpro/devkita64/bin/../lib/gcc/aarch64-none-elf/8.3.0/../../../../aarch64-none-elf/lib/pic\libg.a(lib_a-svfiprintf.o)
                0x0000000000025e54                __ssprint_r
 .text._svfiprintf_r
                0x0000000000026014     0x28ec e:/appsprograms/devkitpro/devkita64/bin/../lib/gcc/aarch64-none-elf/8.3.0/../../../../aarch64-none-elf/lib/pic\libg.a(lib_a-svfiprintf.o)
                0x0000000000026014                _svfiprintf_r
 .text._wcsnrtombs_l
                0x0000000000028900      0x1dc e:/appsprograms/devkitpro/devkita64/bin/../lib/gcc/aarch64-none-elf/8.3.0/../../../../aarch64-none-elf/lib/pic\libg.a(lib_a-wcsnrtombs.o)
                0x0000000000028900                _wcsnrtombs_l
 *fill*         0x0000000000028adc        0x4 
 .text._wcsnrtombs_r
                0x0000000000028ae0       0x54 e:/appsprograms/devkitpro/devkita64/bin/../lib/gcc/aarch64-none-elf/8.3.0/../../../../aarch64-none-elf/lib/pic\libg.a(lib_a-wcsnrtombs.o)
                0x0000000000028ae0                _wcsnrtombs_r
 *fill*         0x0000000000028b34        0x4 
 .text.wcsnrtombs
                0x0000000000028b38       0x64 e:/appsprograms/devkitpro/devkita64/bin/../lib/gcc/aarch64-none-elf/8.3.0/../../../../aarch64-none-elf/lib/pic\libg.a(lib_a-wcsnrtombs.o)
                0x0000000000028b38                wcsnrtombs
 *fill*         0x0000000000028b9c        0x4 
 .text._wctomb_r
                0x0000000000028ba0       0x54 e:/appsprograms/devkitpro/devkita64/bin/../lib/gcc/aarch64-none-elf/8.3.0/../../../../aarch64-none-elf/lib/pic\libg.a(lib_a-wctomb_r.o)
                0x0000000000028ba0                _wctomb_r
 *fill*         0x0000000000028bf4        0x4 
 .text.__ascii_wctomb
                0x0000000000028bf8       0x34 e:/appsprograms/devkitpro/devkita64/bin/../lib/gcc/aarch64-none-elf/8.3.0/../../../../aarch64-none-elf/lib/pic\libg.a(lib_a-wctomb_r.o)
                0x0000000000028bf8                __ascii_wctomb
 *fill*         0x0000000000028c2c        0x4 
 .text.__utf8_wctomb
                0x0000000000028c30       0xe4 e:/appsprograms/devkitpro/devkita64/bin/../lib/gcc/aarch64-none-elf/8.3.0/../../../../aarch64-none-elf/lib/pic\libg.a(lib_a-wctomb_r.o)
                0x0000000000028c30                __utf8_wctomb
 *fill*         0x0000000000028d14        0x4 
 .text.__sjis_wctomb
                0x0000000000028d18       0x84 e:/appsprograms/devkitpro/devkita64/bin/../lib/gcc/aarch64-none-elf/8.3.0/../../../../aarch64-none-elf/lib/pic\libg.a(lib_a-wctomb_r.o)
                0x0000000000028d18                __sjis_wctomb
 *fill*         0x0000000000028d9c        0x4 
 .text.__eucjp_wctomb
                0x0000000000028da0       0xa8 e:/appsprograms/devkitpro/devkita64/bin/../lib/gcc/aarch64-none-elf/8.3.0/../../../../aarch64-none-elf/lib/pic\libg.a(lib_a-wctomb_r.o)
                0x0000000000028da0                __eucjp_wctomb
 .text.__jis_wctomb
                0x0000000000028e48       0xbc e:/appsprograms/devkitpro/devkita64/bin/../lib/gcc/aarch64-none-elf/8.3.0/../../../../aarch64-none-elf/lib/pic\libg.a(lib_a-wctomb_r.o)
                0x0000000000028e48                __jis_wctomb
 *fill*         0x0000000000028f04        0x4 
 .text._calloc_r
                0x0000000000028f08       0x94 e:/appsprograms/devkitpro/devkita64/bin/../lib/gcc/aarch64-none-elf/8.3.0/../../../../aarch64-none-elf/lib/pic\libg.a(lib_a-callocr.o)
                0x0000000000028f08                _calloc_r
 *fill*         0x0000000000028f9c        0x4 
 .text.null_write
                0x0000000000028fa0        0x8 e:/appsprograms/devkitpro/devkita64/bin/../lib/gcc/aarch64-none-elf/8.3.0/../../../../aarch64-none-elf/lib/pic\libsysbase.a(iosupport.o)
 .text.setDefaultDevice
                0x0000000000028fa8       0x18 e:/appsprograms/devkitpro/devkita64/bin/../lib/gcc/aarch64-none-elf/8.3.0/../../../../aarch64-none-elf/lib/pic\libsysbase.a(iosupport.o)
                0x0000000000028fa8                setDefaultDevice
 .text.FindDevice
                0x0000000000028fc0      0x108 e:/appsprograms/devkitpro/devkita64/bin/../lib/gcc/aarch64-none-elf/8.3.0/../../../../aarch64-none-elf/lib/pic\libsysbase.a(iosupport.o)
                0x0000000000028fc0                FindDevice
 .text.RemoveDevice
                0x00000000000290c8       0x34 e:/appsprograms/devkitpro/devkita64/bin/../lib/gcc/aarch64-none-elf/8.3.0/../../../../aarch64-none-elf/lib/pic\libsysbase.a(iosupport.o)
                0x00000000000290c8                RemoveDevice
 *fill*         0x00000000000290fc        0x4 
 .text.AddDevice
                0x0000000000029100       0xd8 e:/appsprograms/devkitpro/devkita64/bin/../lib/gcc/aarch64-none-elf/8.3.0/../../../../aarch64-none-elf/lib/pic\libsysbase.a(iosupport.o)
                0x0000000000029100                AddDevice
 .text.GetDeviceOpTab
                0x00000000000291d8       0x34 e:/appsprograms/devkitpro/devkita64/bin/../lib/gcc/aarch64-none-elf/8.3.0/../../../../aarch64-none-elf/lib/pic\libsysbase.a(iosupport.o)
                0x00000000000291d8                GetDeviceOpTab
 *fill*         0x000000000002920c        0x4 
 .text._sbrk_r  0x0000000000029210       0x78 e:/appsprograms/devkitpro/devkita64/bin/../lib/gcc/aarch64-none-elf/8.3.0/../../../../aarch64-none-elf/lib/pic\libsysbase.a(sbrk.o)
                0x0000000000029210                _sbrk_r
 .text._exit    0x0000000000029288       0x20 e:/appsprograms/devkitpro/devkita64/bin/../lib/gcc/aarch64-none-elf/8.3.0/../../../../aarch64-none-elf/lib/pic\libsysbase.a(_exit.o)
                0x0000000000029288                _exit
 .text._concatenate_path
                0x00000000000292a8      0x234 e:/appsprograms/devkitpro/devkita64/bin/../lib/gcc/aarch64-none-elf/8.3.0/../../../../aarch64-none-elf/lib/pic\libsysbase.a(chdir.o)
                0x00000000000292a8                _concatenate_path
 *fill*         0x00000000000294dc        0x4 
 .text.chdir    0x00000000000294e0      0x178 e:/appsprograms/devkitpro/devkita64/bin/../lib/gcc/aarch64-none-elf/8.3.0/../../../../aarch64-none-elf/lib/pic\libsysbase.a(chdir.o)
                0x00000000000294e0                chdir
 .text.getcwd   0x0000000000029658       0xb8 e:/appsprograms/devkitpro/devkita64/bin/../lib/gcc/aarch64-none-elf/8.3.0/../../../../aarch64-none-elf/lib/pic\libsysbase.a(chdir.o)
                0x0000000000029658                getcwd
 .text.timespec2nsec
                0x0000000000029710       0x14 e:/appsprograms/devkitpro/devkita64/bin/../lib/gcc/aarch64-none-elf/8.3.0/../../../../aarch64-none-elf/lib/pic\libsysbase.a(locks.o)
                0x0000000000029710                timespec2nsec
 *fill*         0x0000000000029724        0x4 
 .text.abstimespec2nsec
                0x0000000000029728       0xc4 e:/appsprograms/devkitpro/devkita64/bin/../lib/gcc/aarch64-none-elf/8.3.0/../../../../aarch64-none-elf/lib/pic\libsysbase.a(locks.o)
                0x0000000000029728                abstimespec2nsec
 *fill*         0x00000000000297ec        0x4 
 .text.__libc_lock_init
                0x00000000000297f0        0x8 e:/appsprograms/devkitpro/devkita64/bin/../lib/gcc/aarch64-none-elf/8.3.0/../../../../aarch64-none-elf/lib/pic\libsysbase.a(locks.o)
                0x00000000000297f0                __libc_lock_init
 .text.__libc_lock_acquire
                0x00000000000297f8       0x14 e:/appsprograms/devkitpro/devkita64/bin/../lib/gcc/aarch64-none-elf/8.3.0/../../../../aarch64-none-elf/lib/pic\libsysbase.a(locks.o)
                0x00000000000297f8                __libc_lock_acquire
 *fill*         0x000000000002980c        0x4 
 .text.__libc_lock_try_acquire
                0x0000000000029810       0x18 e:/appsprograms/devkitpro/devkita64/bin/../lib/gcc/aarch64-none-elf/8.3.0/../../../../aarch64-none-elf/lib/pic\libsysbase.a(locks.o)
                0x0000000000029810                __libc_lock_try_acquire
 .text.__libc_lock_release
                0x0000000000029828       0x14 e:/appsprograms/devkitpro/devkita64/bin/../lib/gcc/aarch64-none-elf/8.3.0/../../../../aarch64-none-elf/lib/pic\libsysbase.a(locks.o)
                0x0000000000029828                __libc_lock_release
 *fill*         0x000000000002983c        0x4 
 .text.__libc_lock_close
                0x0000000000029840        0x4 e:/appsprograms/devkitpro/devkita64/bin/../lib/gcc/aarch64-none-elf/8.3.0/../../../../aarch64-none-elf/lib/pic\libsysbase.a(locks.o)
                0x0000000000029840                __libc_lock_close
 *fill*         0x0000000000029844        0x4 
 .text.__libc_lock_init_recursive
                0x0000000000029848        0xc e:/appsprograms/devkitpro/devkita64/bin/../lib/gcc/aarch64-none-elf/8.3.0/../../../../aarch64-none-elf/lib/pic\libsysbase.a(locks.o)
                0x0000000000029848                __libc_lock_init_recursive
 *fill*         0x0000000000029854        0x4 
 .text.__libc_lock_acquire_recursive
                0x0000000000029858       0x14 e:/appsprograms/devkitpro/devkita64/bin/../lib/gcc/aarch64-none-elf/8.3.0/../../../../aarch64-none-elf/lib/pic\libsysbase.a(locks.o)
                0x0000000000029858                __libc_lock_acquire_recursive
 *fill*         0x000000000002986c        0x4 
 .text.__libc_lock_try_acquire_recursive
                0x0000000000029870       0x18 e:/appsprograms/devkitpro/devkita64/bin/../lib/gcc/aarch64-none-elf/8.3.0/../../../../aarch64-none-elf/lib/pic\libsysbase.a(locks.o)
                0x0000000000029870                __libc_lock_try_acquire_recursive
 .text.__libc_lock_release_recursive
                0x0000000000029888       0x14 e:/appsprograms/devkitpro/devkita64/bin/../lib/gcc/aarch64-none-elf/8.3.0/../../../../aarch64-none-elf/lib/pic\libsysbase.a(locks.o)
                0x0000000000029888                __libc_lock_release_recursive
 *fill*         0x000000000002989c        0x4 
 .text.__libc_lock_close_recursive
                0x00000000000298a0        0x4 e:/appsprograms/devkitpro/devkita64/bin/../lib/gcc/aarch64-none-elf/8.3.0/../../../../aarch64-none-elf/lib/pic\libsysbase.a(locks.o)
                0x00000000000298a0                __libc_lock_close_recursive
 *fill*         0x00000000000298a4        0x4 
 .text.__libc_cond_init
                0x00000000000298a8        0xc e:/appsprograms/devkitpro/devkita64/bin/../lib/gcc/aarch64-none-elf/8.3.0/../../../../aarch64-none-elf/lib/pic\libsysbase.a(locks.o)
                0x00000000000298a8                __libc_cond_init
 *fill*         0x00000000000298b4        0x4 
 .text.__libc_cond_signal
                0x00000000000298b8       0x18 e:/appsprograms/devkitpro/devkita64/bin/../lib/gcc/aarch64-none-elf/8.3.0/../../../../aarch64-none-elf/lib/pic\libsysbase.a(locks.o)
                0x00000000000298b8                __libc_cond_signal
 .text.__libc_cond_broadcast
                0x00000000000298d0       0x18 e:/appsprograms/devkitpro/devkita64/bin/../lib/gcc/aarch64-none-elf/8.3.0/../../../../aarch64-none-elf/lib/pic\libsysbase.a(locks.o)
                0x00000000000298d0                __libc_cond_broadcast
 .text.__libc_cond_wait
                0x00000000000298e8       0x18 e:/appsprograms/devkitpro/devkita64/bin/../lib/gcc/aarch64-none-elf/8.3.0/../../../../aarch64-none-elf/lib/pic\libsysbase.a(locks.o)
                0x00000000000298e8                __libc_cond_wait
 .text.__libc_cond_wait_recursive
                0x0000000000029900       0x18 e:/appsprograms/devkitpro/devkita64/bin/../lib/gcc/aarch64-none-elf/8.3.0/../../../../aarch64-none-elf/lib/pic\libsysbase.a(locks.o)
                0x0000000000029900                __libc_cond_wait_recursive
 .text.__getreent
                0x0000000000029918       0x20 e:/appsprograms/devkitpro/devkita64/bin/../lib/gcc/aarch64-none-elf/8.3.0/../../../../aarch64-none-elf/lib/pic\libsysbase.a(getreent.o)
                0x0000000000029918                __getreent
 .text.clock_gettime
                0x0000000000029938       0x30 e:/appsprograms/devkitpro/devkita64/bin/../lib/gcc/aarch64-none-elf/8.3.0/../../../../aarch64-none-elf/lib/pic\libsysbase.a(clocks.o)
                0x0000000000029938                clock_gettime
 .text.clock_settime
                0x0000000000029968       0x30 e:/appsprograms/devkitpro/devkita64/bin/../lib/gcc/aarch64-none-elf/8.3.0/../../../../aarch64-none-elf/lib/pic\libsysbase.a(clocks.o)
                0x0000000000029968                clock_settime
 .text.clock_getres
                0x0000000000029998       0x30 e:/appsprograms/devkitpro/devkita64/bin/../lib/gcc/aarch64-none-elf/8.3.0/../../../../aarch64-none-elf/lib/pic\libsysbase.a(clocks.o)
                0x0000000000029998                clock_getres
 .text.__trunctfdf2
                0x00000000000299c8      0x348 e:/appsprograms/devkitpro/devkita64/bin/../lib/gcc/aarch64-none-elf/8.3.0/pic\libgcc.a(trunctfdf2.o)
                0x00000000000299c8                __trunctfdf2
 .text.__sfp_handle_exceptions
                0x0000000000029d10       0x70 e:/appsprograms/devkitpro/devkita64/bin/../lib/gcc/aarch64-none-elf/8.3.0/pic\libgcc.a(sfp-exceptions.o)
                0x0000000000029d10                __sfp_handle_exceptions
 .text          0x0000000000029d80      0x100 e:/appsprograms/devkitpro/devkita64/bin/../lib/gcc/aarch64-none-elf/8.3.0/../../../../aarch64-none-elf/lib/pic\libg.a(lib_a-strrchr.o)
                0x0000000000029d80                strrchr
                0x0000000000029e80                . = ALIGN (0x8)

.fini           0x0000000000029e80       0x38
 *(.fini)
 .fini          0x0000000000029e80       0x18 e:/appsprograms/devkitpro/devkita64/bin/../lib/gcc/aarch64-none-elf/8.3.0/pic/crti.o
                0x0000000000029e80                _fini
 .fini          0x0000000000029e98       0x1c e:/appsprograms/devkitpro/devkita64/bin/../lib/gcc/aarch64-none-elf/8.3.0/pic/crtn.o
                0x0000000000029eb8                . = ALIGN (0x8)
 *fill*         0x0000000000029eb4        0x4 
                0x000000000002a000                . = ALIGN (0x1000)

.rodata         0x000000000002a000     0x1ba8
 *(.rodata .rodata.* .gnu.linkonce.r.*)
 .rodata        0x000000000002a000      0x400 main.o
 .rodata.str1.8
                0x000000000002a400      0x1c4 main.o
 *fill*         0x000000000002a5c4        0x4 
 .rodata        0x000000000002a5c8      0x400 acmd_wrapper.o
 .rodata.str1.8
                0x000000000002a9c8        0x5 acmd_wrapper.o
 *fill*         0x000000000002a9cd        0x3 
 .rodata        0x000000000002a9d0        0x5 saltysd_helper.o
 *fill*         0x000000000002a9d5        0x3 
 .rodata.str1.8
                0x000000000002a9d8        0x5 saltysd_helper.o
 *fill*         0x000000000002a9dd        0x3 
 .rodata        0x000000000002a9e0       0x60 lua_bind_hash.o
 .rodata        0x000000000002aa40      0x53c raygun_printer.o
 *fill*         0x000000000002af7c        0x4 
 .rodata.str1.8
                0x000000000002af80      0x147 raygun_printer.o
                                        0x14f (size before relaxing)
 *fill*         0x000000000002b0c7        0x1 
 .rodata._fsdevUnmountDeviceStruct.part.4.str1.8
                0x000000000002b0c8        0x2 E:/SmashProjects/EveryoneHasWitchTime/code-mod-framework/lib/libnx_min/nx/lib\libnx_min.a(fs_dev.o)
 *fill*         0x000000000002b0ca        0x6 
 .rodata.error_table
                0x000000000002b0d0       0x20 E:/SmashProjects/EveryoneHasWitchTime/code-mod-framework/lib/libnx_min/nx/lib\libnx_min.a(fs_dev.o)
 .rodata.fsdevMountSdmc.str1.8
                0x000000000002b0f0        0x5 E:/SmashProjects/EveryoneHasWitchTime/code-mod-framework/lib/libnx_min/nx/lib\libnx_min.a(fs_dev.o)
 *fill*         0x000000000002b0f5        0x3 
 .rodata.fsInitialize.str1.8
                0x000000000002b0f8        0x8 E:/SmashProjects/EveryoneHasWitchTime/code-mod-framework/lib/libnx_min/nx/lib\libnx_min.a(fs.o)
 .rodata.setInitialize.str1.8
                0x000000000002b100        0x4 E:/SmashProjects/EveryoneHasWitchTime/code-mod-framework/lib/libnx_min/nx/lib\libnx_min.a(set.o)
 *fill*         0x000000000002b104        0x4 
 .rodata.setsysInitialize.str1.8
                0x000000000002b108        0x8 E:/SmashProjects/EveryoneHasWitchTime/code-mod-framework/lib/libnx_min/nx/lib\libnx_min.a(set.o)
 .rodata._fatalImpl.str1.8
                0x000000000002b110        0x8 E:/SmashProjects/EveryoneHasWitchTime/code-mod-framework/lib/libnx_min/nx/lib\libnx_min.a(fatal.o)
 .rodata.smInitialize.str1.8
                0x000000000002b118        0x4 E:/SmashProjects/EveryoneHasWitchTime/code-mod-framework/lib/libnx_min/nx/lib\libnx_min.a(sm.o)
                                          0x9 (size before relaxing)
 *fill*         0x000000000002b11c        0x4 
 .rodata        0x000000000002b120       0x24 E:/SmashProjects/EveryoneHasWitchTime/code-mod-framework/lib/libnx_min/nx/lib\libnx_min.a(hid.o)
 *fill*         0x000000000002b144        0x4 
 .rodata.hidInitialize.str1.8
                0x000000000002b148        0x4 E:/SmashProjects/EveryoneHasWitchTime/code-mod-framework/lib/libnx_min/nx/lib\libnx_min.a(hid.o)
 *fill*         0x000000000002b14c        0x4 
 .rodata.timeInitialize.str1.8
                0x000000000002b150        0xf E:/SmashProjects/EveryoneHasWitchTime/code-mod-framework/lib/libnx_min/nx/lib\libnx_min.a(time.o)
 *fill*         0x000000000002b15f        0x1 
 .rodata.CSWTCH.93
                0x000000000002b160       0x14 E:/SmashProjects/EveryoneHasWitchTime/code-mod-framework/lib/libnx_min/nx/lib\libnx_min.a(applet.o)
 *fill*         0x000000000002b174        0x4 
 .rodata.appletInitialize.str1.8
                0x000000000002b178       0x19 E:/SmashProjects/EveryoneHasWitchTime/code-mod-framework/lib/libnx_min/nx/lib\libnx_min.a(applet.o)
 *fill*         0x000000000002b191        0x7 
 .rodata.__libnx_init_time.str1.8
                0x000000000002b198        0x3 E:/SmashProjects/EveryoneHasWitchTime/code-mod-framework/lib/libnx_min/nx/lib\libnx_min.a(newlib.o)
 *fill*         0x000000000002b19b        0x5 
 .rodata.apmInitialize.str1.8
                0x000000000002b1a0        0x4 E:/SmashProjects/EveryoneHasWitchTime/code-mod-framework/lib/libnx_min/nx/lib\libnx_min.a(apm.o)
 *fill*         0x000000000002b1a4        0x4 
 .rodata._ctype_
                0x000000000002b1a8      0x101 e:/appsprograms/devkitpro/devkita64/bin/../lib/gcc/aarch64-none-elf/8.3.0/../../../../aarch64-none-elf/lib/pic\libg.a(lib_a-ctype_.o)
                0x000000000002b1a8                _ctype_
 *fill*         0x000000000002b2a9        0x3 
 .rodata.get_arg
                0x000000000002b2ac       0x92 e:/appsprograms/devkitpro/devkita64/bin/../lib/gcc/aarch64-none-elf/8.3.0/../../../../aarch64-none-elf/lib/pic\libg.a(lib_a-svfprintf.o)
 *fill*         0x000000000002b33e        0x2 
 .rodata._svfprintf_r
                0x000000000002b340       0xb6 e:/appsprograms/devkitpro/devkita64/bin/../lib/gcc/aarch64-none-elf/8.3.0/../../../../aarch64-none-elf/lib/pic\libg.a(lib_a-svfprintf.o)
 .rodata._svfprintf_r.str1.1
                0x000000000002b3f6       0x3b e:/appsprograms/devkitpro/devkita64/bin/../lib/gcc/aarch64-none-elf/8.3.0/../../../../aarch64-none-elf/lib/pic\libg.a(lib_a-svfprintf.o)
 *fill*         0x000000000002b431        0x7 
 .rodata.blanks.6590
                0x000000000002b438       0x10 e:/appsprograms/devkitpro/devkita64/bin/../lib/gcc/aarch64-none-elf/8.3.0/../../../../aarch64-none-elf/lib/pic\libg.a(lib_a-svfprintf.o)
 .rodata.zeroes.6591
                0x000000000002b448       0x10 e:/appsprograms/devkitpro/devkita64/bin/../lib/gcc/aarch64-none-elf/8.3.0/../../../../aarch64-none-elf/lib/pic\libg.a(lib_a-svfprintf.o)
 .rodata._dtoa_r.cst8
                0x000000000002b458       0x18 e:/appsprograms/devkitpro/devkita64/bin/../lib/gcc/aarch64-none-elf/8.3.0/../../../../aarch64-none-elf/lib/pic\libg.a(lib_a-dtoa.o)
 .rodata._dtoa_r.str1.8
                0x000000000002b470       0x1a e:/appsprograms/devkitpro/devkita64/bin/../lib/gcc/aarch64-none-elf/8.3.0/../../../../aarch64-none-elf/lib/pic\libg.a(lib_a-dtoa.o)
 *fill*         0x000000000002b48a        0x2 
 .rodata.__loadlocale
                0x000000000002b48c       0x6a e:/appsprograms/devkitpro/devkita64/bin/../lib/gcc/aarch64-none-elf/8.3.0/../../../../aarch64-none-elf/lib/pic\libg.a(lib_a-locale.o)
 *fill*         0x000000000002b4f6        0x2 
 .rodata.__get_locale_env.str1.8
                0x000000000002b4f8        0xd e:/appsprograms/devkitpro/devkita64/bin/../lib/gcc/aarch64-none-elf/8.3.0/../../../../aarch64-none-elf/lib/pic\libg.a(lib_a-locale.o)
 *fill*         0x000000000002b505        0x3 
 .rodata.__loadlocale.str1.8
                0x000000000002b508      0x113 e:/appsprograms/devkitpro/devkita64/bin/../lib/gcc/aarch64-none-elf/8.3.0/../../../../aarch64-none-elf/lib/pic\libg.a(lib_a-locale.o)
 *fill*         0x000000000002b61b        0x5 
 .rodata.currentlocale.str1.8
                0x000000000002b620        0x2 e:/appsprograms/devkitpro/devkita64/bin/../lib/gcc/aarch64-none-elf/8.3.0/../../../../aarch64-none-elf/lib/pic\libg.a(lib_a-locale.o)
 *fill*         0x000000000002b622        0x6 
 .rodata.str1.8
                0x000000000002b628       0x5c e:/appsprograms/devkitpro/devkita64/bin/../lib/gcc/aarch64-none-elf/8.3.0/../../../../aarch64-none-elf/lib/pic\libg.a(lib_a-locale.o)
                                         0x64 (size before relaxing)
 *fill*         0x000000000002b684        0x4 
 .rodata.JIS_action_table
                0x000000000002b688       0x48 e:/appsprograms/devkitpro/devkita64/bin/../lib/gcc/aarch64-none-elf/8.3.0/../../../../aarch64-none-elf/lib/pic\libg.a(lib_a-mbtowc_r.o)
 .rodata.JIS_state_table
                0x000000000002b6d0       0x48 e:/appsprograms/devkitpro/devkita64/bin/../lib/gcc/aarch64-none-elf/8.3.0/../../../../aarch64-none-elf/lib/pic\libg.a(lib_a-mbtowc_r.o)
 .rodata.__mprec_bigtens
                0x000000000002b718       0x28 e:/appsprograms/devkitpro/devkita64/bin/../lib/gcc/aarch64-none-elf/8.3.0/../../../../aarch64-none-elf/lib/pic\libg.a(lib_a-mprec.o)
                0x000000000002b718                __mprec_bigtens
 .rodata.__mprec_tens
                0x000000000002b740       0xc8 e:/appsprograms/devkitpro/devkita64/bin/../lib/gcc/aarch64-none-elf/8.3.0/../../../../aarch64-none-elf/lib/pic\libg.a(lib_a-mprec.o)
                0x000000000002b740                __mprec_tens
 .rodata.__mprec_tinytens
                0x000000000002b808       0x28 e:/appsprograms/devkitpro/devkita64/bin/../lib/gcc/aarch64-none-elf/8.3.0/../../../../aarch64-none-elf/lib/pic\libg.a(lib_a-mprec.o)
                0x000000000002b808                __mprec_tinytens
 .rodata.p05.5339
                0x000000000002b830        0xc e:/appsprograms/devkitpro/devkita64/bin/../lib/gcc/aarch64-none-elf/8.3.0/../../../../aarch64-none-elf/lib/pic\libg.a(lib_a-mprec.o)
 .rodata.get_arg
                0x000000000002b83c       0x92 e:/appsprograms/devkitpro/devkita64/bin/../lib/gcc/aarch64-none-elf/8.3.0/../../../../aarch64-none-elf/lib/pic\libg.a(lib_a-svfiprintf.o)
 *fill*         0x000000000002b8ce        0x2 
 .rodata._svfiprintf_r
                0x000000000002b8d0       0xb6 e:/appsprograms/devkitpro/devkita64/bin/../lib/gcc/aarch64-none-elf/8.3.0/../../../../aarch64-none-elf/lib/pic\libg.a(lib_a-svfiprintf.o)
 *fill*         0x000000000002b986        0x2 
 .rodata.__action_table
                0x000000000002b988       0x6c e:/appsprograms/devkitpro/devkita64/bin/../lib/gcc/aarch64-none-elf/8.3.0/../../../../aarch64-none-elf/lib/pic\libg.a(lib_a-svfiprintf.o)
                0x000000000002b988                __action_table
 *fill*         0x000000000002b9f4        0x4 
 .rodata.__chclass
                0x000000000002b9f8      0x100 e:/appsprograms/devkitpro/devkita64/bin/../lib/gcc/aarch64-none-elf/8.3.0/../../../../aarch64-none-elf/lib/pic\libg.a(lib_a-svfiprintf.o)
                0x000000000002b9f8                __chclass
 .rodata.__state_table
                0x000000000002baf8       0x6c e:/appsprograms/devkitpro/devkita64/bin/../lib/gcc/aarch64-none-elf/8.3.0/../../../../aarch64-none-elf/lib/pic\libg.a(lib_a-svfiprintf.o)
                0x000000000002baf8                __state_table
 .rodata._svfiprintf_r.str1.1
                0x000000000002bb64       0x29 e:/appsprograms/devkitpro/devkita64/bin/../lib/gcc/aarch64-none-elf/8.3.0/../../../../aarch64-none-elf/lib/pic\libg.a(lib_a-svfiprintf.o)
 *fill*         0x000000000002bb64        0x4 
 .rodata.blanks.6569
                0x000000000002bb68       0x10 e:/appsprograms/devkitpro/devkita64/bin/../lib/gcc/aarch64-none-elf/8.3.0/../../../../aarch64-none-elf/lib/pic\libg.a(lib_a-svfiprintf.o)
 .rodata.zeroes.6570
                0x000000000002bb78       0x10 e:/appsprograms/devkitpro/devkita64/bin/../lib/gcc/aarch64-none-elf/8.3.0/../../../../aarch64-none-elf/lib/pic\libg.a(lib_a-svfiprintf.o)
 .rodata.AddDevice.str1.8
                0x000000000002bb88        0x8 e:/appsprograms/devkitpro/devkita64/bin/../lib/gcc/aarch64-none-elf/8.3.0/../../../../aarch64-none-elf/lib/pic\libsysbase.a(iosupport.o)
 .rodata.DIRECTORY_PARENT
                0x000000000002bb90        0x3 e:/appsprograms/devkitpro/devkita64/bin/../lib/gcc/aarch64-none-elf/8.3.0/../../../../aarch64-none-elf/lib/pic\libsysbase.a(chdir.o)
                0x000000000002bb90                DIRECTORY_PARENT
 *fill*         0x000000000002bb93        0x5 
 .rodata.DIRECTORY_SEPARATOR
                0x000000000002bb98        0x2 e:/appsprograms/devkitpro/devkita64/bin/../lib/gcc/aarch64-none-elf/8.3.0/../../../../aarch64-none-elf/lib/pic\libsysbase.a(chdir.o)
                0x000000000002bb98                DIRECTORY_SEPARATOR
 *fill*         0x000000000002bb9a        0x6 
 .rodata.DIRECTORY_THIS
                0x000000000002bba0        0x2 e:/appsprograms/devkitpro/devkita64/bin/../lib/gcc/aarch64-none-elf/8.3.0/../../../../aarch64-none-elf/lib/pic\libsysbase.a(chdir.o)
                0x000000000002bba0                DIRECTORY_THIS
                0x000000000002bba8                . = ALIGN (0x8)
 *fill*         0x000000000002bba2        0x6 

.eh_frame_hdr   0x000000000002bba8        0x0
                0x000000000002bba8                __eh_frame_hdr_start = .
 *(.eh_frame_hdr)
 *(.eh_frame_entry .eh_frame_entry.*)
                0x000000000002bba8                __eh_frame_hdr_end = .

.eh_frame       0x000000000002bba8     0x7838
 *(.eh_frame)
 .eh_frame      0x000000000002bba8       0x80 e:/appsprograms/devkitpro/devkita64/bin/../lib/gcc/aarch64-none-elf/8.3.0/pic/crtbegin.o
 .eh_frame      0x000000000002bc28      0x268 main.o
                                        0x280 (size before relaxing)
 .eh_frame      0x000000000002be90      0x320 acmd_wrapper.o
                                        0x338 (size before relaxing)
 .eh_frame      0x000000000002c1b0       0x70 saltysd_helper.o
                                         0x88 (size before relaxing)
 .eh_frame      0x000000000002c220       0x40 lua_bind_hash.o
                                         0x58 (size before relaxing)
 .eh_frame      0x000000000002c260       0xd8 l2c_imports.o
                                         0xe8 (size before relaxing)
 .eh_frame      0x000000000002c338      0x120 raygun_printer.o
                                        0x130 (size before relaxing)
 .eh_frame      0x000000000002c458       0x28 E:/SmashProjects/EveryoneHasWitchTime/code-mod-framework/lib/libnx_min/nx/lib\libnx_min.a(exception.o)
                                         0x40 (size before relaxing)
 .eh_frame      0x000000000002c480       0xa8 E:/SmashProjects/EveryoneHasWitchTime/code-mod-framework/lib/libnx_min/nx/lib\libnx_min.a(argv.o)
                                         0xb8 (size before relaxing)
 .eh_frame      0x000000000002c528      0x1c0 E:/SmashProjects/EveryoneHasWitchTime/code-mod-framework/lib/libnx_min/nx/lib\libnx_min.a(env.o)
                                        0x1d8 (size before relaxing)
 .eh_frame      0x000000000002c6e8       0x68 E:/SmashProjects/EveryoneHasWitchTime/code-mod-framework/lib/libnx_min/nx/lib\libnx_min.a(init.o)
                                         0xb8 (size before relaxing)
 .eh_frame      0x000000000002c750       0x28 E:/SmashProjects/EveryoneHasWitchTime/code-mod-framework/lib/libnx_min/nx/lib\libnx_min.a(hosversion.o)
                                         0x40 (size before relaxing)
 .eh_frame      0x000000000002c778       0x18 E:/SmashProjects/EveryoneHasWitchTime/code-mod-framework/lib/libnx_min/nx/lib\libnx_min.a(dynamic.o)
                                         0x30 (size before relaxing)
 .eh_frame      0x000000000002c790      0x800 E:/SmashProjects/EveryoneHasWitchTime/code-mod-framework/lib/libnx_min/nx/lib\libnx_min.a(fs_dev.o)
                                        0x818 (size before relaxing)
 .eh_frame      0x000000000002cf90       0x18 E:/SmashProjects/EveryoneHasWitchTime/code-mod-framework/lib/libnx_min/nx/lib\libnx_min.a(decode_utf8.o)
                                         0x28 (size before relaxing)
 .eh_frame      0x000000000002cfa8      0x7d0 E:/SmashProjects/EveryoneHasWitchTime/code-mod-framework/lib/libnx_min/nx/lib\libnx_min.a(svc.o)
                                        0x7e8 (size before relaxing)
 .eh_frame      0x000000000002d778       0x18 E:/SmashProjects/EveryoneHasWitchTime/code-mod-framework/lib/libnx_min/nx/lib\libnx_min.a(readtp.o)
                                         0x28 (size before relaxing)
 .eh_frame      0x000000000002d790      0x108 E:/SmashProjects/EveryoneHasWitchTime/code-mod-framework/lib/libnx_min/nx/lib\libnx_min.a(virtmem.o)
                                        0x120 (size before relaxing)
 .eh_frame      0x000000000002d898       0xb0 E:/SmashProjects/EveryoneHasWitchTime/code-mod-framework/lib/libnx_min/nx/lib\libnx_min.a(mutex.o)
                                         0xc0 (size before relaxing)
 .eh_frame      0x000000000002d948      0xed0 E:/SmashProjects/EveryoneHasWitchTime/code-mod-framework/lib/libnx_min/nx/lib\libnx_min.a(fs.o)
                                        0xee0 (size before relaxing)
 .eh_frame      0x000000000002e818      0x540 E:/SmashProjects/EveryoneHasWitchTime/code-mod-framework/lib/libnx_min/nx/lib\libnx_min.a(set.o)
                                        0x550 (size before relaxing)
 .eh_frame      0x000000000002ed58       0x70 E:/SmashProjects/EveryoneHasWitchTime/code-mod-framework/lib/libnx_min/nx/lib\libnx_min.a(fatal.o)
                                         0x88 (size before relaxing)
 .eh_frame      0x000000000002edc8      0x1d8 E:/SmashProjects/EveryoneHasWitchTime/code-mod-framework/lib/libnx_min/nx/lib\libnx_min.a(sm.o)
                                        0x1f0 (size before relaxing)
 .eh_frame      0x000000000002efa0      0xbe0 E:/SmashProjects/EveryoneHasWitchTime/code-mod-framework/lib/libnx_min/nx/lib\libnx_min.a(hid.o)
                                        0xbf0 (size before relaxing)
 .eh_frame      0x000000000002fb80      0x180 E:/SmashProjects/EveryoneHasWitchTime/code-mod-framework/lib/libnx_min/nx/lib\libnx_min.a(time.o)
                                        0x198 (size before relaxing)
 .eh_frame      0x000000000002fd00     0x1448 E:/SmashProjects/EveryoneHasWitchTime/code-mod-framework/lib/libnx_min/nx/lib\libnx_min.a(applet.o)
                                       0x1458 (size before relaxing)
 .eh_frame      0x0000000000031148      0x408 E:/SmashProjects/EveryoneHasWitchTime/code-mod-framework/lib/libnx_min/nx/lib\libnx_min.a(newlib.o)
                                        0x420 (size before relaxing)
 .eh_frame      0x0000000000031550      0x1b8 E:/SmashProjects/EveryoneHasWitchTime/code-mod-framework/lib/libnx_min/nx/lib\libnx_min.a(thread.o)
                                        0x1c8 (size before relaxing)
 .eh_frame      0x0000000000031708       0x30 E:/SmashProjects/EveryoneHasWitchTime/code-mod-framework/lib/libnx_min/nx/lib\libnx_min.a(condvar.o)
                                         0x48 (size before relaxing)
 .eh_frame      0x0000000000031738       0xb0 E:/SmashProjects/EveryoneHasWitchTime/code-mod-framework/lib/libnx_min/nx/lib\libnx_min.a(event.o)
                                         0xc0 (size before relaxing)
 .eh_frame      0x00000000000317e8       0xf0 E:/SmashProjects/EveryoneHasWitchTime/code-mod-framework/lib/libnx_min/nx/lib\libnx_min.a(tmem.o)
                                        0x108 (size before relaxing)
 .eh_frame      0x00000000000318d8       0xb0 E:/SmashProjects/EveryoneHasWitchTime/code-mod-framework/lib/libnx_min/nx/lib\libnx_min.a(rwlock.o)
                                         0xc0 (size before relaxing)
 .eh_frame      0x0000000000031988       0xb0 E:/SmashProjects/EveryoneHasWitchTime/code-mod-framework/lib/libnx_min/nx/lib\libnx_min.a(wait.o)
                                         0xc8 (size before relaxing)
 .eh_frame      0x0000000000031a38       0xb8 E:/SmashProjects/EveryoneHasWitchTime/code-mod-framework/lib/libnx_min/nx/lib\libnx_min.a(shmem.o)
                                         0xc8 (size before relaxing)
 .eh_frame      0x0000000000031af0       0xc8 E:/SmashProjects/EveryoneHasWitchTime/code-mod-framework/lib/libnx_min/nx/lib\libnx_min.a(detect.o)
                                         0xd8 (size before relaxing)
 .eh_frame      0x0000000000031bb8      0x110 E:/SmashProjects/EveryoneHasWitchTime/code-mod-framework/lib/libnx_min/nx/lib\libnx_min.a(apm.o)
                                        0x128 (size before relaxing)
 .eh_frame      0x0000000000031cc8       0x68 e:/appsprograms/devkitpro/devkita64/bin/../lib/gcc/aarch64-none-elf/8.3.0/../../../../aarch64-none-elf/lib/pic\libg.a(lib_a-bsearch.o)
                                         0x78 (size before relaxing)
 .eh_frame      0x0000000000031d30       0x18 e:/appsprograms/devkitpro/devkita64/bin/../lib/gcc/aarch64-none-elf/8.3.0/../../../../aarch64-none-elf/lib/pic\libg.a(lib_a-ctype_.o)
                                         0x28 (size before relaxing)
 .eh_frame      0x0000000000031d48       0x20 e:/appsprograms/devkitpro/devkita64/bin/../lib/gcc/aarch64-none-elf/8.3.0/../../../../aarch64-none-elf/lib/pic\libg.a(lib_a-errno.o)
                                         0x38 (size before relaxing)
 .eh_frame      0x0000000000031d68       0x20 e:/appsprograms/devkitpro/devkita64/bin/../lib/gcc/aarch64-none-elf/8.3.0/../../../../aarch64-none-elf/lib/pic\libg.a(lib_a-exit.o)
                                         0x30 (size before relaxing)
 .eh_frame      0x0000000000031d88       0x28 e:/appsprograms/devkitpro/devkita64/bin/../lib/gcc/aarch64-none-elf/8.3.0/../../../../aarch64-none-elf/lib/pic\libg.a(lib_a-fini.o)
                                         0x38 (size before relaxing)
 .eh_frame      0x0000000000031db0       0x28 e:/appsprograms/devkitpro/devkita64/bin/../lib/gcc/aarch64-none-elf/8.3.0/../../../../aarch64-none-elf/lib/pic\libg.a(lib_a-init.o)
                                         0x40 (size before relaxing)
 .eh_frame      0x0000000000031dd8       0x28 e:/appsprograms/devkitpro/devkita64/bin/../lib/gcc/aarch64-none-elf/8.3.0/../../../../aarch64-none-elf/lib/pic\libg.a(lib_a-malign.o)
                                         0x38 (size before relaxing)
 .eh_frame      0x0000000000031e00       0x50 e:/appsprograms/devkitpro/devkita64/bin/../lib/gcc/aarch64-none-elf/8.3.0/../../../../aarch64-none-elf/lib/pic\libg.a(lib_a-malignr.o)
                                         0x68 (size before relaxing)
 .eh_frame      0x0000000000031e50       0x40 e:/appsprograms/devkitpro/devkita64/bin/../lib/gcc/aarch64-none-elf/8.3.0/../../../../aarch64-none-elf/lib/pic\libg.a(lib_a-malloc.o)
                                         0x58 (size before relaxing)
 .eh_frame      0x0000000000031e90       0xd0 e:/appsprograms/devkitpro/devkita64/bin/../lib/gcc/aarch64-none-elf/8.3.0/../../../../aarch64-none-elf/lib/pic\libg.a(lib_a-mallocr.o)
                                         0xe0 (size before relaxing)
 .eh_frame      0x0000000000031f60       0x28 e:/appsprograms/devkitpro/devkita64/bin/../lib/gcc/aarch64-none-elf/8.3.0/../../../../aarch64-none-elf/lib/pic\libg.a(lib_a-mlock.o)
                                         0x40 (size before relaxing)
 .eh_frame      0x0000000000031f88       0x48 e:/appsprograms/devkitpro/devkita64/bin/../lib/gcc/aarch64-none-elf/8.3.0/../../../../aarch64-none-elf/lib/pic\libg.a(lib_a-setenv.o)
                                         0x58 (size before relaxing)
 .eh_frame      0x0000000000031fd0       0xb0 e:/appsprograms/devkitpro/devkita64/bin/../lib/gcc/aarch64-none-elf/8.3.0/../../../../aarch64-none-elf/lib/pic\libg.a(lib_a-setenv_r.o)
                                         0xc8 (size before relaxing)
 .eh_frame      0x0000000000032080       0x18 e:/appsprograms/devkitpro/devkita64/bin/../lib/gcc/aarch64-none-elf/8.3.0/../../../../aarch64-none-elf/lib/pic\libg.a(lib_a-strncat.o)
                                         0x28 (size before relaxing)
 .eh_frame      0x0000000000032098       0x18 e:/appsprograms/devkitpro/devkita64/bin/../lib/gcc/aarch64-none-elf/8.3.0/../../../../aarch64-none-elf/lib/pic\libg.a(lib_a-strncpy.o)
                                         0x28 (size before relaxing)
 .eh_frame      0x00000000000320b0       0x18 e:/appsprograms/devkitpro/devkita64/bin/../lib/gcc/aarch64-none-elf/8.3.0/../../../../aarch64-none-elf/lib/pic\libg.a(lib_a-toupper.o)
                                         0x28 (size before relaxing)
 .eh_frame      0x00000000000320c8       0x58 e:/appsprograms/devkitpro/devkita64/bin/../lib/gcc/aarch64-none-elf/8.3.0/../../../../aarch64-none-elf/lib/pic\libg.a(lib_a-vsnprintf.o)
                                         0x68 (size before relaxing)
 .eh_frame      0x0000000000032120       0x40 e:/appsprograms/devkitpro/devkita64/bin/../lib/gcc/aarch64-none-elf/8.3.0/../../../../aarch64-none-elf/lib/pic\libg.a(lib_a-__call_atexit.o)
                                         0x58 (size before relaxing)
 .eh_frame      0x0000000000032160       0x28 e:/appsprograms/devkitpro/devkita64/bin/../lib/gcc/aarch64-none-elf/8.3.0/../../../../aarch64-none-elf/lib/pic\libg.a(lib_a-envlock.o)
                                         0x40 (size before relaxing)
 .eh_frame      0x0000000000032188       0x80 e:/appsprograms/devkitpro/devkita64/bin/../lib/gcc/aarch64-none-elf/8.3.0/../../../../aarch64-none-elf/lib/pic\libg.a(lib_a-freer.o)
                                         0x98 (size before relaxing)
 .eh_frame      0x0000000000032208       0x68 e:/appsprograms/devkitpro/devkita64/bin/../lib/gcc/aarch64-none-elf/8.3.0/../../../../aarch64-none-elf/lib/pic\libg.a(lib_a-getenv_r.o)
                                         0x78 (size before relaxing)
 .eh_frame      0x0000000000032270       0xf0 e:/appsprograms/devkitpro/devkita64/bin/../lib/gcc/aarch64-none-elf/8.3.0/../../../../aarch64-none-elf/lib/pic\libg.a(lib_a-reallocr.o)
                                        0x108 (size before relaxing)
 .eh_frame      0x0000000000032360       0xb8 e:/appsprograms/devkitpro/devkita64/bin/../lib/gcc/aarch64-none-elf/8.3.0/../../../../aarch64-none-elf/lib/pic\libg.a(lib_a-svfprintf.o)
                                         0xc8 (size before relaxing)
 .eh_frame      0x0000000000032418       0x70 e:/appsprograms/devkitpro/devkita64/bin/../lib/gcc/aarch64-none-elf/8.3.0/../../../../aarch64-none-elf/lib/pic\libg.a(lib_a-wcrtomb.o)
                                         0x80 (size before relaxing)
 .eh_frame      0x0000000000032488       0x38 e:/appsprograms/devkitpro/devkita64/bin/../lib/gcc/aarch64-none-elf/8.3.0/../../../../aarch64-none-elf/lib/pic\libg.a(lib_a-wcsrtombs.o)
                                         0x50 (size before relaxing)
 .eh_frame      0x00000000000324c0       0x98 e:/appsprograms/devkitpro/devkita64/bin/../lib/gcc/aarch64-none-elf/8.3.0/../../../../aarch64-none-elf/lib/pic\libg.a(lib_a-dtoa.o)
                                         0xb0 (size before relaxing)
 .eh_frame      0x0000000000032558       0x58 e:/appsprograms/devkitpro/devkita64/bin/../lib/gcc/aarch64-none-elf/8.3.0/../../../../aarch64-none-elf/lib/pic\libg.a(lib_a-localeconv.o)
                                         0x68 (size before relaxing)
 .eh_frame      0x00000000000325b0      0x200 e:/appsprograms/devkitpro/devkita64/bin/../lib/gcc/aarch64-none-elf/8.3.0/../../../../aarch64-none-elf/lib/pic\libg.a(lib_a-locale.o)
                                        0x210 (size before relaxing)
 .eh_frame      0x00000000000327b0       0xf8 e:/appsprograms/devkitpro/devkita64/bin/../lib/gcc/aarch64-none-elf/8.3.0/../../../../aarch64-none-elf/lib/pic\libg.a(lib_a-mbtowc_r.o)
                                        0x110 (size before relaxing)
 .eh_frame      0x00000000000328a8      0x2f8 e:/appsprograms/devkitpro/devkita64/bin/../lib/gcc/aarch64-none-elf/8.3.0/../../../../aarch64-none-elf/lib/pic\libg.a(lib_a-mprec.o)
                                        0x310 (size before relaxing)
 .eh_frame      0x0000000000032ba0       0x18 e:/appsprograms/devkitpro/devkita64/bin/../lib/gcc/aarch64-none-elf/8.3.0/../../../../aarch64-none-elf/lib/pic\libg.a(lib_a-s_frexp.o)
                                         0x28 (size before relaxing)
 .eh_frame      0x0000000000032bb8       0x18 e:/appsprograms/devkitpro/devkita64/bin/../lib/gcc/aarch64-none-elf/8.3.0/../../../../aarch64-none-elf/lib/pic\libg.a(lib_a-strcasecmp.o)
                                         0x28 (size before relaxing)
 .eh_frame      0x0000000000032bd0       0x28 e:/appsprograms/devkitpro/devkita64/bin/../lib/gcc/aarch64-none-elf/8.3.0/../../../../aarch64-none-elf/lib/pic\libg.a(lib_a-strcat.o)
                                         0x38 (size before relaxing)
 .eh_frame      0x0000000000032bf8       0x18 e:/appsprograms/devkitpro/devkita64/bin/../lib/gcc/aarch64-none-elf/8.3.0/../../../../aarch64-none-elf/lib/pic\libg.a(lib_a-strlcpy.o)
                                         0x28 (size before relaxing)
 .eh_frame      0x0000000000032c10       0x18 e:/appsprograms/devkitpro/devkita64/bin/../lib/gcc/aarch64-none-elf/8.3.0/../../../../aarch64-none-elf/lib/pic\libg.a(lib_a-strncasecmp.o)
                                         0x28 (size before relaxing)
 .eh_frame      0x0000000000032c28       0x80 e:/appsprograms/devkitpro/devkita64/bin/../lib/gcc/aarch64-none-elf/8.3.0/../../../../aarch64-none-elf/lib/pic\libg.a(lib_a-strtol.o)
                                         0x98 (size before relaxing)
 .eh_frame      0x0000000000032ca8       0xe0 e:/appsprograms/devkitpro/devkita64/bin/../lib/gcc/aarch64-none-elf/8.3.0/../../../../aarch64-none-elf/lib/pic\libg.a(lib_a-svfiprintf.o)
                                         0xf8 (size before relaxing)
 .eh_frame      0x0000000000032d88      0x128 e:/appsprograms/devkitpro/devkita64/bin/../lib/gcc/aarch64-none-elf/8.3.0/../../../../aarch64-none-elf/lib/pic\libg.a(lib_a-wcsnrtombs.o)
                                        0x138 (size before relaxing)
 .eh_frame      0x0000000000032eb0       0x88 e:/appsprograms/devkitpro/devkita64/bin/../lib/gcc/aarch64-none-elf/8.3.0/../../../../aarch64-none-elf/lib/pic\libg.a(lib_a-wctomb_r.o)
                                         0xa0 (size before relaxing)
 .eh_frame      0x0000000000032f38       0x30 e:/appsprograms/devkitpro/devkita64/bin/../lib/gcc/aarch64-none-elf/8.3.0/../../../../aarch64-none-elf/lib/pic\libg.a(lib_a-callocr.o)
                                         0x40 (size before relaxing)
 .eh_frame      0x0000000000032f68      0x118 e:/appsprograms/devkitpro/devkita64/bin/../lib/gcc/aarch64-none-elf/8.3.0/../../../../aarch64-none-elf/lib/pic\libsysbase.a(iosupport.o)
                                        0x130 (size before relaxing)
 .eh_frame      0x0000000000033080       0x18 e:/appsprograms/devkitpro/devkita64/bin/../lib/gcc/aarch64-none-elf/8.3.0/../../../../aarch64-none-elf/lib/pic\libsysbase.a(sbrk.o)
                                         0x28 (size before relaxing)
 .eh_frame      0x0000000000033098       0x20 e:/appsprograms/devkitpro/devkita64/bin/../lib/gcc/aarch64-none-elf/8.3.0/../../../../aarch64-none-elf/lib/pic\libsysbase.a(_exit.o)
                                         0x38 (size before relaxing)
 .eh_frame      0x00000000000330b8      0x110 e:/appsprograms/devkitpro/devkita64/bin/../lib/gcc/aarch64-none-elf/8.3.0/../../../../aarch64-none-elf/lib/pic\libsysbase.a(chdir.o)
                                        0x128 (size before relaxing)
 .eh_frame      0x00000000000331c8      0x168 e:/appsprograms/devkitpro/devkita64/bin/../lib/gcc/aarch64-none-elf/8.3.0/../../../../aarch64-none-elf/lib/pic\libsysbase.a(locks.o)
                                        0x178 (size before relaxing)
 .eh_frame      0x0000000000033330       0x18 e:/appsprograms/devkitpro/devkita64/bin/../lib/gcc/aarch64-none-elf/8.3.0/../../../../aarch64-none-elf/lib/pic\libsysbase.a(getreent.o)
                                         0x28 (size before relaxing)
 .eh_frame      0x0000000000033348       0x60 e:/appsprograms/devkitpro/devkita64/bin/../lib/gcc/aarch64-none-elf/8.3.0/../../../../aarch64-none-elf/lib/pic\libsysbase.a(clocks.o)
                                         0x78 (size before relaxing)
 .eh_frame      0x00000000000333a8       0x20 e:/appsprograms/devkitpro/devkita64/bin/../lib/gcc/aarch64-none-elf/8.3.0/pic\libgcc.a(trunctfdf2.o)
                                         0x38 (size before relaxing)
 .eh_frame      0x00000000000333c8       0x14 e:/appsprograms/devkitpro/devkita64/bin/../lib/gcc/aarch64-none-elf/8.3.0/pic\libgcc.a(sfp-exceptions.o)
                                         0x28 (size before relaxing)
 .eh_frame      0x00000000000333dc        0x4 e:/appsprograms/devkitpro/devkita64/bin/../lib/gcc/aarch64-none-elf/8.3.0/pic/crtend.o
 *(.eh_frame.*)

.gcc_except_table
 *(.gcc_except_table .gcc_except_table.*)

.gnu_extab
 *(.gnu_extab*)

.dynamic        0x00000000000333e0      0x1a0
 *(.dynamic)
 .dynamic       0x00000000000333e0      0x1a0 e:/appsprograms/devkitpro/devkita64/bin/../lib/gcc/aarch64-none-elf/8.3.0/pic/crti.o
                0x00000000000333e0                _DYNAMIC

.dynsym         0x0000000000033580     0x4818
 *(.dynsym)
 .dynsym        0x0000000000033580     0x4818 e:/appsprograms/devkitpro/devkita64/bin/../lib/gcc/aarch64-none-elf/8.3.0/pic/crti.o

.dynstr         0x0000000000037d98     0x3c86
 *(.dynstr)
 .dynstr        0x0000000000037d98     0x3c86 e:/appsprograms/devkitpro/devkita64/bin/../lib/gcc/aarch64-none-elf/8.3.0/pic/crti.o

.rela.dyn       0x000000000003ba20     0x30c0
 *(.rela.*)
 .rela.got      0x000000000003ba20      0xc90 e:/appsprograms/devkitpro/devkita64/bin/../lib/gcc/aarch64-none-elf/8.3.0/pic/crti.o
 .rela.plt      0x000000000003ea20       0xc0 e:/appsprograms/devkitpro/devkita64/bin/../lib/gcc/aarch64-none-elf/8.3.0/pic/crti.o
 .rela.bss      0x000000000003c770        0x0 e:/appsprograms/devkitpro/devkita64/bin/../lib/gcc/aarch64-none-elf/8.3.0/pic/crti.o
 .rela.data.rel.ro
                0x000000000003c770        0x0 e:/appsprograms/devkitpro/devkita64/bin/../lib/gcc/aarch64-none-elf/8.3.0/pic/crti.o
 .rela.init_array
                0x000000000003c6b0       0x30 e:/appsprograms/devkitpro/devkita64/bin/../lib/gcc/aarch64-none-elf/8.3.0/pic/crti.o
 .rela.fini_array
                0x000000000003c6e0       0x18 e:/appsprograms/devkitpro/devkita64/bin/../lib/gcc/aarch64-none-elf/8.3.0/pic/crti.o
 .rela.ifunc    0x000000000003c7b8        0x0 e:/appsprograms/devkitpro/devkita64/bin/../lib/gcc/aarch64-none-elf/8.3.0/pic/crti.o
 .rela.data.rel.local
                0x000000000003c6f8      0x3c0 e:/appsprograms/devkitpro/devkita64/bin/../lib/gcc/aarch64-none-elf/8.3.0/pic/crti.o
 .rela.data.rel.ro.local.fsdev_devoptab
                0x000000000003cab8      0x210 e:/appsprograms/devkitpro/devkita64/bin/../lib/gcc/aarch64-none-elf/8.3.0/pic/crti.o
 .rela.data.rel.local._impure_ptr
                0x000000000003ccc8       0x18 e:/appsprograms/devkitpro/devkita64/bin/../lib/gcc/aarch64-none-elf/8.3.0/pic/crti.o
 .rela.data.rel.local.impure_data
                0x000000000003cce0       0x48 e:/appsprograms/devkitpro/devkita64/bin/../lib/gcc/aarch64-none-elf/8.3.0/pic/crti.o
 .rela.data.rel.ro.local._global_impure_ptr
                0x000000000003cd28       0x18 e:/appsprograms/devkitpro/devkita64/bin/../lib/gcc/aarch64-none-elf/8.3.0/pic/crti.o
 .rela.data.rel.__malloc_av_
                0x000000000003cd40     0x1800 e:/appsprograms/devkitpro/devkita64/bin/../lib/gcc/aarch64-none-elf/8.3.0/pic/crti.o
 .rela.data.rel.local.environ
                0x000000000003e540       0x18 e:/appsprograms/devkitpro/devkita64/bin/../lib/gcc/aarch64-none-elf/8.3.0/pic/crti.o
 .rela.data.rel.__global_locale
                0x000000000003e558      0x138 e:/appsprograms/devkitpro/devkita64/bin/../lib/gcc/aarch64-none-elf/8.3.0/pic/crti.o
 .rela.data.rel.ro.__C_locale
                0x000000000003e690      0x138 e:/appsprograms/devkitpro/devkita64/bin/../lib/gcc/aarch64-none-elf/8.3.0/pic/crti.o
 .rela.data.rel.ro.local.categories
                0x000000000003e7c8       0xa8 e:/appsprograms/devkitpro/devkita64/bin/../lib/gcc/aarch64-none-elf/8.3.0/pic/crti.o
 .rela.data.rel.devoptab_list
                0x000000000003e870      0x180 e:/appsprograms/devkitpro/devkita64/bin/../lib/gcc/aarch64-none-elf/8.3.0/pic/crti.o
 .rela.data.rel.ro.local.dotab_stdnull
                0x000000000003e9f0       0x30 e:/appsprograms/devkitpro/devkita64/bin/../lib/gcc/aarch64-none-elf/8.3.0/pic/crti.o

.interp         0x000000000003eae0        0xd
 *(.interp)
 .interp        0x000000000003eae0        0xd e:/appsprograms/devkitpro/devkita64/bin/../lib/gcc/aarch64-none-elf/8.3.0/pic/crti.o

.hash           0x000000000003eaf0     0x1430
 *(.hash)
 .hash          0x000000000003eaf0     0x1430 e:/appsprograms/devkitpro/devkita64/bin/../lib/gcc/aarch64-none-elf/8.3.0/pic/crti.o

.gnu.hash
 *(.gnu.hash)

.gnu.version    0x000000000003ff20        0x0
 *(.gnu.version)
 .gnu.version   0x000000000003ff20        0x0 e:/appsprograms/devkitpro/devkita64/bin/../lib/gcc/aarch64-none-elf/8.3.0/pic/crti.o

.gnu.version_d  0x000000000003ff20        0x0
 *(.gnu.version_d)
 .gnu.version_d
                0x000000000003ff20        0x0 e:/appsprograms/devkitpro/devkita64/bin/../lib/gcc/aarch64-none-elf/8.3.0/pic/crti.o

.gnu.version_r  0x000000000003ff20        0x0
 *(.gnu.version_r)
 .gnu.version_r
                0x000000000003ff20        0x0 e:/appsprograms/devkitpro/devkita64/bin/../lib/gcc/aarch64-none-elf/8.3.0/pic/crti.o

.note.gnu.build-id
                0x000000000003ff20       0x24
 *(.note.gnu.build-id)
 .note.gnu.build-id
                0x000000000003ff20       0x24 e:/appsprograms/devkitpro/devkita64/bin/../lib/gcc/aarch64-none-elf/8.3.0/pic/crti.o
                0x0000000000040000                . = ALIGN (0x1000)

.eh_frame
 *(.eh_frame)
 *(.eh_frame.*)

.gcc_except_table
 *(.gcc_except_table .gcc_except_table.*)

.gnu_extab
 *(.gnu_extab*)

.exception_ranges
 *(.exception_ranges .exception_ranges*)

.tdata          0x0000000000040000        0x0
                0x0000000000040000                __tdata_lma = .
 *(.tdata .tdata.* .gnu.linkonce.td.*)
                0x0000000000040000                . = ALIGN (0x8)
                0x0000000000040000                __tdata_lma_end = .

.tbss           0x0000000000040000     0x4408
 *(.tbss .tbss.* .gnu.linkonce.tb.*)
 .tbss.__fixedpath
                0x0000000000040000      0x401 E:/SmashProjects/EveryoneHasWitchTime/code-mod-framework/lib/libnx_min/nx/lib\libnx_min.a(fs_dev.o)
 *fill*         0x0000000000040401        0x3 
 .tbss.fsdev_last_result
                0x0000000000040404        0x4 E:/SmashProjects/EveryoneHasWitchTime/code-mod-framework/lib/libnx_min/nx/lib\libnx_min.a(fs_dev.o)
 .tbss.tmp_buffer.7389
                0x0000000000040408     0x2000 E:/SmashProjects/EveryoneHasWitchTime/code-mod-framework/lib/libnx_min/nx/lib\libnx_min.a(fs_dev.o)
 .tbss.tmp_buffer.7413
                0x0000000000042408     0x2000 E:/SmashProjects/EveryoneHasWitchTime/code-mod-framework/lib/libnx_min/nx/lib\libnx_min.a(fs_dev.o)
 *(.tcommon)
                0x0000000000044408                . = ALIGN (0x8)

.preinit_array  0x0000000000040000        0x0
                0x0000000000040000                PROVIDE (__preinit_array_start = .)
 *(.preinit_array)
                0x0000000000040000                PROVIDE (__preinit_array_end = .)

.init_array     0x0000000000040000       0x10
                0x0000000000040000                PROVIDE (__init_array_start = .)
 *(SORT_BY_NAME(.init_array.*))
 *(.init_array)
 .init_array    0x0000000000040000        0x8 e:/appsprograms/devkitpro/devkita64/bin/../lib/gcc/aarch64-none-elf/8.3.0/pic/crtbegin.o
 .init_array    0x0000000000040008        0x8 main.o
                0x0000000000040010                PROVIDE (__init_array_end = .)

.fini_array     0x0000000000040010        0x8
                0x0000000000040010                PROVIDE (__fini_array_start = .)
 *(.fini_array)
 .fini_array    0x0000000000040010        0x8 e:/appsprograms/devkitpro/devkita64/bin/../lib/gcc/aarch64-none-elf/8.3.0/pic/crtbegin.o
 *(SORT_BY_NAME(.fini_array.*))
                0x0000000000040018                PROVIDE (__fini_array_end = .)

.ctors
 *crtbegin.o(.ctors)
 *(EXCLUDE_FILE(*crtend.o) .ctors)
 *(SORT_BY_NAME(.ctors.*))
 *(.ctors)

.dtors
 *crtbegin.o(.dtors)
 *(EXCLUDE_FILE(*crtend.o) .dtors)
 *(SORT_BY_NAME(.dtors.*))
 *(.dtors)
                0x0000000000040018                __got_start__ = .

.got            0x0000000000040018      0x438
 *(.got)
 .got           0x0000000000040018      0x438 e:/appsprograms/devkitpro/devkita64/bin/../lib/gcc/aarch64-none-elf/8.3.0/pic/crti.o
                0x0000000000040018                _GLOBAL_OFFSET_TABLE_
 *(.igot)

.got.plt        0x0000000000040450       0x58
 *(.got.plt)
 .got.plt       0x0000000000040450       0x58 e:/appsprograms/devkitpro/devkita64/bin/../lib/gcc/aarch64-none-elf/8.3.0/pic/crti.o
 *(.igot.plt)
                0x00000000000404a8                __got_end__ = .

.data           0x00000000000404a8     0x1ef8
 *(.data .data.* .gnu.linkonce.d.*)
 .data.rel.ro   0x00000000000404a8        0x0 e:/appsprograms/devkitpro/devkita64/bin/../lib/gcc/aarch64-none-elf/8.3.0/pic/crti.o
 .data          0x00000000000404a8        0x4 main.o
                0x00000000000404a8                __nx_applet_type
 *fill*         0x00000000000404ac        0x4 
 .data.rel.local
                0x00000000000404b0      0x140 raygun_printer.o
                0x00000000000404b0                alphabet
 .data.__nx_exception_stack_size
                0x00000000000405f0        0x8 E:/SmashProjects/EveryoneHasWitchTime/code-mod-framework/lib/libnx_min/nx/lib\libnx_min.a(init.o)
                0x00000000000405f0                __nx_exception_stack_size
 .data.__cwd    0x00000000000405f8      0x401 E:/SmashProjects/EveryoneHasWitchTime/code-mod-framework/lib/libnx_min/nx/lib\libnx_min.a(fs_dev.o)
 *fill*         0x00000000000409f9        0x3 
 .data.fsdev_fsdevice_cwd
                0x00000000000409fc        0x4 E:/SmashProjects/EveryoneHasWitchTime/code-mod-framework/lib/libnx_min/nx/lib\libnx_min.a(fs_dev.o)
 .data.fsdev_fsdevice_default
                0x0000000000040a00        0x4 E:/SmashProjects/EveryoneHasWitchTime/code-mod-framework/lib/libnx_min/nx/lib\libnx_min.a(fs_dev.o)
 *fill*         0x0000000000040a04        0x4 
 .data.rel.ro.local.fsdev_devoptab
                0x0000000000040a08       0xe0 E:/SmashProjects/EveryoneHasWitchTime/code-mod-framework/lib/libnx_min/nx/lib\libnx_min.a(fs_dev.o)
 .data.__nx_applet_auto_notifyrunning
                0x0000000000040ae8        0x1 E:/SmashProjects/EveryoneHasWitchTime/code-mod-framework/lib/libnx_min/nx/lib\libnx_min.a(applet.o)
                0x0000000000040ae8                __nx_applet_auto_notifyrunning
 *fill*         0x0000000000040ae9        0x7 
 .data.rel.local._impure_ptr
                0x0000000000040af0        0x8 e:/appsprograms/devkitpro/devkita64/bin/../lib/gcc/aarch64-none-elf/8.3.0/../../../../aarch64-none-elf/lib/pic\libg.a(lib_a-impure.o)
                0x0000000000040af0                _impure_ptr
 .data.rel.local.impure_data
                0x0000000000040af8      0x768 e:/appsprograms/devkitpro/devkita64/bin/../lib/gcc/aarch64-none-elf/8.3.0/../../../../aarch64-none-elf/lib/pic\libg.a(lib_a-impure.o)
 .data.rel.ro.local._global_impure_ptr
                0x0000000000041260        0x8 e:/appsprograms/devkitpro/devkita64/bin/../lib/gcc/aarch64-none-elf/8.3.0/../../../../aarch64-none-elf/lib/pic\libg.a(lib_a-impure.o)
                0x0000000000041260                _global_impure_ptr
 .data.__malloc_sbrk_base
                0x0000000000041268        0x8 e:/appsprograms/devkitpro/devkita64/bin/../lib/gcc/aarch64-none-elf/8.3.0/../../../../aarch64-none-elf/lib/pic\libg.a(lib_a-mallocr.o)
                0x0000000000041268                __malloc_sbrk_base
 .data.__malloc_trim_threshold
                0x0000000000041270        0x8 e:/appsprograms/devkitpro/devkita64/bin/../lib/gcc/aarch64-none-elf/8.3.0/../../../../aarch64-none-elf/lib/pic\libg.a(lib_a-mallocr.o)
                0x0000000000041270                __malloc_trim_threshold
 .data.rel.__malloc_av_
                0x0000000000041278      0x810 e:/appsprograms/devkitpro/devkita64/bin/../lib/gcc/aarch64-none-elf/8.3.0/../../../../aarch64-none-elf/lib/pic\libg.a(lib_a-mallocr.o)
                0x0000000000041278                __malloc_av_
 .data.rel.local.environ
                0x0000000000041a88        0x8 e:/appsprograms/devkitpro/devkita64/bin/../lib/gcc/aarch64-none-elf/8.3.0/../../../../aarch64-none-elf/lib/pic\libg.a(lib_a-environ.o)
                0x0000000000041a88                environ
 .data.__default_locale
                0x0000000000041a90       0x20 e:/appsprograms/devkitpro/devkita64/bin/../lib/gcc/aarch64-none-elf/8.3.0/../../../../aarch64-none-elf/lib/pic\libg.a(lib_a-locale.o)
                0x0000000000041a90                __default_locale
 .data.rel.__global_locale
                0x0000000000041ab0      0x1a8 e:/appsprograms/devkitpro/devkita64/bin/../lib/gcc/aarch64-none-elf/8.3.0/../../../../aarch64-none-elf/lib/pic\libg.a(lib_a-locale.o)
                0x0000000000041ab0                __global_locale
 .data.rel.ro.__C_locale
                0x0000000000041c58      0x1a8 e:/appsprograms/devkitpro/devkita64/bin/../lib/gcc/aarch64-none-elf/8.3.0/../../../../aarch64-none-elf/lib/pic\libg.a(lib_a-locale.o)
                0x0000000000041c58                __C_locale
 .data.rel.ro.local.categories
                0x0000000000041e00       0x38 e:/appsprograms/devkitpro/devkita64/bin/../lib/gcc/aarch64-none-elf/8.3.0/../../../../aarch64-none-elf/lib/pic\libg.a(lib_a-locale.o)
 .data.defaultDevice
                0x0000000000041e38        0x4 e:/appsprograms/devkitpro/devkita64/bin/../lib/gcc/aarch64-none-elf/8.3.0/../../../../aarch64-none-elf/lib/pic\libsysbase.a(iosupport.o)
 *fill*         0x0000000000041e3c        0x4 
 .data.rel.devoptab_list
                0x0000000000041e40       0x80 e:/appsprograms/devkitpro/devkita64/bin/../lib/gcc/aarch64-none-elf/8.3.0/../../../../aarch64-none-elf/lib/pic\libsysbase.a(iosupport.o)
                0x0000000000041e40                devoptab_list
 .data.rel.ro.local.dotab_stdnull
                0x0000000000041ec0       0xe0 e:/appsprograms/devkitpro/devkita64/bin/../lib/gcc/aarch64-none-elf/8.3.0/../../../../aarch64-none-elf/lib/pic\libsysbase.a(iosupport.o)
                0x0000000000041ec0                dotab_stdnull
 .data._current_working_directory
                0x0000000000041fa0      0x400 e:/appsprograms/devkitpro/devkita64/bin/../lib/gcc/aarch64-none-elf/8.3.0/../../../../aarch64-none-elf/lib/pic\libsysbase.a(chdir.o)
                0x00000000000423a0                __bss_start__ = .

.tm_clone_table
                0x00000000000423a0        0x0
 .tm_clone_table
                0x00000000000423a0        0x0 e:/appsprograms/devkitpro/devkita64/bin/../lib/gcc/aarch64-none-elf/8.3.0/pic/crtbegin.o
 .tm_clone_table
                0x00000000000423a0        0x0 e:/appsprograms/devkitpro/devkita64/bin/../lib/gcc/aarch64-none-elf/8.3.0/pic/crtend.o

.bss            0x00000000000423a0    0x15980
 *(.dynbss)
 .dynbss        0x00000000000423a0        0x0 e:/appsprograms/devkitpro/devkita64/bin/../lib/gcc/aarch64-none-elf/8.3.0/pic/crti.o
 *(.bss .bss.* .gnu.linkonce.b.*)
 .bss.completed.7870
                0x00000000000423a0        0x1 e:/appsprograms/devkitpro/devkita64/bin/../lib/gcc/aarch64-none-elf/8.3.0/pic/crtbegin.o
 *fill*         0x00000000000423a1        0x7 
 .bss.object.7875
                0x00000000000423a8       0x30 e:/appsprograms/devkitpro/devkita64/bin/../lib/gcc/aarch64-none-elf/8.3.0/pic/crtbegin.o
 .bss           0x00000000000423d8     0x81c0 main.o
                0x00000000000423d8                fighter_module_accessors
                0x0000000000042418                fighter_agents
                0x0000000000042458                acmd_objs
                0x0000000000042558                prev_clear_lua_stack
                0x0000000000042560                time_slow_effect_hash
                0x0000000000042568                time_slow_effect_vector
                0x0000000000042578                prev_get_command_flag_cat
                0x0000000000042580                orig_ctx
                0x0000000000042588                orig_main_thread
                0x0000000000042590                orig_saved_lr
 .bss           0x000000000004a598        0x8 saltysd_helper.o
                0x000000000004a598                ANCHOR_ABS
 .bss.g_argv_empty
                0x000000000004a5a0        0x8 E:/SmashProjects/EveryoneHasWitchTime/code-mod-framework/lib/libnx_min/nx/lib\libnx_min.a(argv.o)
 .bss.g_hasRandomSeed
                0x000000000004a5a8        0x1 E:/SmashProjects/EveryoneHasWitchTime/code-mod-framework/lib/libnx_min/nx/lib\libnx_min.a(env.o)
 .bss.g_isNso   0x000000000004a5a9        0x1 E:/SmashProjects/EveryoneHasWitchTime/code-mod-framework/lib/libnx_min/nx/lib\libnx_min.a(env.o)
 *fill*         0x000000000004a5aa        0x2 
 .bss.g_lastLoadResult
                0x000000000004a5ac        0x4 E:/SmashProjects/EveryoneHasWitchTime/code-mod-framework/lib/libnx_min/nx/lib\libnx_min.a(env.o)
 .bss.g_loaderRetAddr
                0x000000000004a5b0        0x8 E:/SmashProjects/EveryoneHasWitchTime/code-mod-framework/lib/libnx_min/nx/lib\libnx_min.a(env.o)
 .bss.g_mainThreadHandle
                0x000000000004a5b8        0x4 E:/SmashProjects/EveryoneHasWitchTime/code-mod-framework/lib/libnx_min/nx/lib\libnx_min.a(env.o)
 *fill*         0x000000000004a5bc        0x4 
 .bss.g_nextLoadArgv
                0x000000000004a5c0        0x8 E:/SmashProjects/EveryoneHasWitchTime/code-mod-framework/lib/libnx_min/nx/lib\libnx_min.a(env.o)
 .bss.g_nextLoadPath
                0x000000000004a5c8        0x8 E:/SmashProjects/EveryoneHasWitchTime/code-mod-framework/lib/libnx_min/nx/lib\libnx_min.a(env.o)
 .bss.g_overrideArgv
                0x000000000004a5d0        0x8 E:/SmashProjects/EveryoneHasWitchTime/code-mod-framework/lib/libnx_min/nx/lib\libnx_min.a(env.o)
 .bss.g_overrideHeapAddr
                0x000000000004a5d8        0x8 E:/SmashProjects/EveryoneHasWitchTime/code-mod-framework/lib/libnx_min/nx/lib\libnx_min.a(env.o)
 .bss.g_overrideHeapSize
                0x000000000004a5e0        0x8 E:/SmashProjects/EveryoneHasWitchTime/code-mod-framework/lib/libnx_min/nx/lib\libnx_min.a(env.o)
 .bss.g_processHandle
                0x000000000004a5e8        0x4 E:/SmashProjects/EveryoneHasWitchTime/code-mod-framework/lib/libnx_min/nx/lib\libnx_min.a(env.o)
 *fill*         0x000000000004a5ec        0x4 
 .bss.g_randomSeed
                0x000000000004a5f0       0x10 E:/SmashProjects/EveryoneHasWitchTime/code-mod-framework/lib/libnx_min/nx/lib\libnx_min.a(env.o)
 .bss.g_syscallHints
                0x000000000004a600       0x10 E:/SmashProjects/EveryoneHasWitchTime/code-mod-framework/lib/libnx_min/nx/lib\libnx_min.a(env.o)
 .bss.__nx_exception_ignoredebug
                0x000000000004a610        0x4 E:/SmashProjects/EveryoneHasWitchTime/code-mod-framework/lib/libnx_min/nx/lib\libnx_min.a(init.o)
                0x000000000004a610                __nx_exception_ignoredebug
 *fill*         0x000000000004a614        0xc 
 .bss.__nx_exception_stack
                0x000000000004a620      0x400 E:/SmashProjects/EveryoneHasWitchTime/code-mod-framework/lib/libnx_min/nx/lib\libnx_min.a(init.o)
                0x000000000004a620                __nx_exception_stack
 .bss.__nx_heap_size
                0x000000000004aa20        0x8 E:/SmashProjects/EveryoneHasWitchTime/code-mod-framework/lib/libnx_min/nx/lib\libnx_min.a(init.o)
                0x000000000004aa20                __nx_heap_size
 .bss.g_hosVersion
                0x000000000004aa28        0x4 E:/SmashProjects/EveryoneHasWitchTime/code-mod-framework/lib/libnx_min/nx/lib\libnx_min.a(hosversion.o)
 *fill*         0x000000000004aa2c        0x4 
 .bss.fsdev_fsdevices
                0x000000000004aa30     0x2300 E:/SmashProjects/EveryoneHasWitchTime/code-mod-framework/lib/libnx_min/nx/lib\libnx_min.a(fs_dev.o)
 .bss.fsdev_initialised
                0x000000000004cd30        0x1 E:/SmashProjects/EveryoneHasWitchTime/code-mod-framework/lib/libnx_min/nx/lib\libnx_min.a(fs_dev.o)
 *fill*         0x000000000004cd31        0x7 
 .bss.g_AddressSpace
                0x000000000004cd38       0x10 E:/SmashProjects/EveryoneHasWitchTime/code-mod-framework/lib/libnx_min/nx/lib\libnx_min.a(virtmem.o)
 .bss.g_CurrentAddr
                0x000000000004cd48        0x8 E:/SmashProjects/EveryoneHasWitchTime/code-mod-framework/lib/libnx_min/nx/lib\libnx_min.a(virtmem.o)
 .bss.g_CurrentMapAddr
                0x000000000004cd50        0x8 E:/SmashProjects/EveryoneHasWitchTime/code-mod-framework/lib/libnx_min/nx/lib\libnx_min.a(virtmem.o)
 .bss.g_Region  0x000000000004cd58       0x30 E:/SmashProjects/EveryoneHasWitchTime/code-mod-framework/lib/libnx_min/nx/lib\libnx_min.a(virtmem.o)
 .bss.g_VirtMemMutex
                0x000000000004cd88        0x4 E:/SmashProjects/EveryoneHasWitchTime/code-mod-framework/lib/libnx_min/nx/lib\libnx_min.a(virtmem.o)
 *fill*         0x000000000004cd8c        0x4 
 .bss.g_fsSrv   0x000000000004cd90        0xc E:/SmashProjects/EveryoneHasWitchTime/code-mod-framework/lib/libnx_min/nx/lib\libnx_min.a(fs.o)
 *fill*         0x000000000004cd9c        0x4 
 .bss.g_refCnt  0x000000000004cda0        0x8 E:/SmashProjects/EveryoneHasWitchTime/code-mod-framework/lib/libnx_min/nx/lib\libnx_min.a(fs.o)
 .bss.g_refCnt  0x000000000004cda8        0x8 E:/SmashProjects/EveryoneHasWitchTime/code-mod-framework/lib/libnx_min/nx/lib\libnx_min.a(set.o)
 .bss.g_refCntSys
                0x000000000004cdb0        0x8 E:/SmashProjects/EveryoneHasWitchTime/code-mod-framework/lib/libnx_min/nx/lib\libnx_min.a(set.o)
 .bss.g_setLanguageCodes
                0x000000000004cdb8      0x200 E:/SmashProjects/EveryoneHasWitchTime/code-mod-framework/lib/libnx_min/nx/lib\libnx_min.a(set.o)
 .bss.g_setLanguageCodesInitialized
                0x000000000004cfb8        0x1 E:/SmashProjects/EveryoneHasWitchTime/code-mod-framework/lib/libnx_min/nx/lib\libnx_min.a(set.o)
 *fill*         0x000000000004cfb9        0x3 
 .bss.g_setLanguageCodesTotal
                0x000000000004cfbc        0x4 E:/SmashProjects/EveryoneHasWitchTime/code-mod-framework/lib/libnx_min/nx/lib\libnx_min.a(set.o)
 .bss.g_setSrv  0x000000000004cfc0        0xc E:/SmashProjects/EveryoneHasWitchTime/code-mod-framework/lib/libnx_min/nx/lib\libnx_min.a(set.o)
 *fill*         0x000000000004cfcc        0x4 
 .bss.g_setsysSrv
                0x000000000004cfd0        0xc E:/SmashProjects/EveryoneHasWitchTime/code-mod-framework/lib/libnx_min/nx/lib\libnx_min.a(set.o)
 *fill*         0x000000000004cfdc        0x4 
 .bss.g_refCnt  0x000000000004cfe0        0x8 E:/SmashProjects/EveryoneHasWitchTime/code-mod-framework/lib/libnx_min/nx/lib\libnx_min.a(sm.o)
 .bss.g_smOverrides
                0x000000000004cfe8      0x200 E:/SmashProjects/EveryoneHasWitchTime/code-mod-framework/lib/libnx_min/nx/lib\libnx_min.a(sm.o)
 .bss.g_smOverridesNum
                0x000000000004d1e8        0x8 E:/SmashProjects/EveryoneHasWitchTime/code-mod-framework/lib/libnx_min/nx/lib\libnx_min.a(sm.o)
 .bss.g_smSrv   0x000000000004d1f0        0xc E:/SmashProjects/EveryoneHasWitchTime/code-mod-framework/lib/libnx_min/nx/lib\libnx_min.a(sm.o)
 *fill*         0x000000000004d1fc        0x4 
 .bss.g_controllerDown
                0x000000000004d200       0x50 E:/SmashProjects/EveryoneHasWitchTime/code-mod-framework/lib/libnx_min/nx/lib\libnx_min.a(hid.o)
 .bss.g_controllerEntries
                0x000000000004d250      0x1e0 E:/SmashProjects/EveryoneHasWitchTime/code-mod-framework/lib/libnx_min/nx/lib\libnx_min.a(hid.o)
 .bss.g_controllerHeaders
                0x000000000004d430      0x190 E:/SmashProjects/EveryoneHasWitchTime/code-mod-framework/lib/libnx_min/nx/lib\libnx_min.a(hid.o)
 .bss.g_controllerHeld
                0x000000000004d5c0       0x50 E:/SmashProjects/EveryoneHasWitchTime/code-mod-framework/lib/libnx_min/nx/lib\libnx_min.a(hid.o)
 .bss.g_controllerLayout
                0x000000000004d610       0x28 E:/SmashProjects/EveryoneHasWitchTime/code-mod-framework/lib/libnx_min/nx/lib\libnx_min.a(hid.o)
 .bss.g_controllerMisc
                0x000000000004d638      0x500 E:/SmashProjects/EveryoneHasWitchTime/code-mod-framework/lib/libnx_min/nx/lib\libnx_min.a(hid.o)
 .bss.g_controllerOld
                0x000000000004db38       0x50 E:/SmashProjects/EveryoneHasWitchTime/code-mod-framework/lib/libnx_min/nx/lib\libnx_min.a(hid.o)
 .bss.g_controllerP1AutoID
                0x000000000004db88        0x4 E:/SmashProjects/EveryoneHasWitchTime/code-mod-framework/lib/libnx_min/nx/lib\libnx_min.a(hid.o)
 *fill*         0x000000000004db8c        0x4 
 .bss.g_controllerTimestamps
                0x000000000004db90       0x50 E:/SmashProjects/EveryoneHasWitchTime/code-mod-framework/lib/libnx_min/nx/lib\libnx_min.a(hid.o)
 .bss.g_controllerUp
                0x000000000004dbe0       0x50 E:/SmashProjects/EveryoneHasWitchTime/code-mod-framework/lib/libnx_min/nx/lib\libnx_min.a(hid.o)
 .bss.g_hidIAppletResource
                0x000000000004dc30        0xc E:/SmashProjects/EveryoneHasWitchTime/code-mod-framework/lib/libnx_min/nx/lib\libnx_min.a(hid.o)
 *fill*         0x000000000004dc3c        0x4 
 .bss.g_hidLock
                0x000000000004dc40       0x10 E:/SmashProjects/EveryoneHasWitchTime/code-mod-framework/lib/libnx_min/nx/lib\libnx_min.a(hid.o)
 .bss.g_hidSharedmem
                0x000000000004dc50       0x20 E:/SmashProjects/EveryoneHasWitchTime/code-mod-framework/lib/libnx_min/nx/lib\libnx_min.a(hid.o)
 .bss.g_hidSrv  0x000000000004dc70        0xc E:/SmashProjects/EveryoneHasWitchTime/code-mod-framework/lib/libnx_min/nx/lib\libnx_min.a(hid.o)
 *fill*         0x000000000004dc7c        0x4 
 .bss.g_keyboardDown
                0x000000000004dc80       0x20 E:/SmashProjects/EveryoneHasWitchTime/code-mod-framework/lib/libnx_min/nx/lib\libnx_min.a(hid.o)
 .bss.g_keyboardEntry
                0x000000000004dca0       0x38 E:/SmashProjects/EveryoneHasWitchTime/code-mod-framework/lib/libnx_min/nx/lib\libnx_min.a(hid.o)
 .bss.g_keyboardHeld
                0x000000000004dcd8       0x20 E:/SmashProjects/EveryoneHasWitchTime/code-mod-framework/lib/libnx_min/nx/lib\libnx_min.a(hid.o)
 .bss.g_keyboardModDown
                0x000000000004dcf8        0x8 E:/SmashProjects/EveryoneHasWitchTime/code-mod-framework/lib/libnx_min/nx/lib\libnx_min.a(hid.o)
 .bss.g_keyboardModHeld
                0x000000000004dd00        0x8 E:/SmashProjects/EveryoneHasWitchTime/code-mod-framework/lib/libnx_min/nx/lib\libnx_min.a(hid.o)
 .bss.g_keyboardModOld
                0x000000000004dd08        0x8 E:/SmashProjects/EveryoneHasWitchTime/code-mod-framework/lib/libnx_min/nx/lib\libnx_min.a(hid.o)
 .bss.g_keyboardModUp
                0x000000000004dd10        0x8 E:/SmashProjects/EveryoneHasWitchTime/code-mod-framework/lib/libnx_min/nx/lib\libnx_min.a(hid.o)
 .bss.g_keyboardOld
                0x000000000004dd18       0x20 E:/SmashProjects/EveryoneHasWitchTime/code-mod-framework/lib/libnx_min/nx/lib\libnx_min.a(hid.o)
 .bss.g_keyboardTimestamp
                0x000000000004dd38        0x8 E:/SmashProjects/EveryoneHasWitchTime/code-mod-framework/lib/libnx_min/nx/lib\libnx_min.a(hid.o)
 .bss.g_keyboardUp
                0x000000000004dd40       0x20 E:/SmashProjects/EveryoneHasWitchTime/code-mod-framework/lib/libnx_min/nx/lib\libnx_min.a(hid.o)
 .bss.g_mouse   0x000000000004dd60      0x400 E:/SmashProjects/EveryoneHasWitchTime/code-mod-framework/lib/libnx_min/nx/lib\libnx_min.a(hid.o)
 .bss.g_mouseDown
                0x000000000004e160        0x8 E:/SmashProjects/EveryoneHasWitchTime/code-mod-framework/lib/libnx_min/nx/lib\libnx_min.a(hid.o)
 .bss.g_mouseEntry
                0x000000000004e168        0x8 E:/SmashProjects/EveryoneHasWitchTime/code-mod-framework/lib/libnx_min/nx/lib\libnx_min.a(hid.o)
 .bss.g_mouseHeld
                0x000000000004e170        0x8 E:/SmashProjects/EveryoneHasWitchTime/code-mod-framework/lib/libnx_min/nx/lib\libnx_min.a(hid.o)
 .bss.g_mouseOld
                0x000000000004e178        0x8 E:/SmashProjects/EveryoneHasWitchTime/code-mod-framework/lib/libnx_min/nx/lib\libnx_min.a(hid.o)
 .bss.g_mouseTimestamp
                0x000000000004e180        0x8 E:/SmashProjects/EveryoneHasWitchTime/code-mod-framework/lib/libnx_min/nx/lib\libnx_min.a(hid.o)
 .bss.g_mouseUp
                0x000000000004e188        0x8 E:/SmashProjects/EveryoneHasWitchTime/code-mod-framework/lib/libnx_min/nx/lib\libnx_min.a(hid.o)
 .bss.g_refCnt  0x000000000004e190        0x8 E:/SmashProjects/EveryoneHasWitchTime/code-mod-framework/lib/libnx_min/nx/lib\libnx_min.a(hid.o)
 .bss.g_sevenSixAxisSensorBuffer
                0x000000000004e198        0x8 E:/SmashProjects/EveryoneHasWitchTime/code-mod-framework/lib/libnx_min/nx/lib\libnx_min.a(hid.o)
 .bss.g_sevenSixAxisSensorTmem0
                0x000000000004e1a0       0x28 E:/SmashProjects/EveryoneHasWitchTime/code-mod-framework/lib/libnx_min/nx/lib\libnx_min.a(hid.o)
 .bss.g_sevenSixAxisSensorTmem1
                0x000000000004e1c8       0x28 E:/SmashProjects/EveryoneHasWitchTime/code-mod-framework/lib/libnx_min/nx/lib\libnx_min.a(hid.o)
 .bss.g_sixaxisEnabled
                0x000000000004e1f0        0xa E:/SmashProjects/EveryoneHasWitchTime/code-mod-framework/lib/libnx_min/nx/lib\libnx_min.a(hid.o)
 *fill*         0x000000000004e1fa        0x6 
 .bss.g_sixaxisLayouts
                0x000000000004e200     0x4650 E:/SmashProjects/EveryoneHasWitchTime/code-mod-framework/lib/libnx_min/nx/lib\libnx_min.a(hid.o)
 .bss.g_touchEntry
                0x0000000000052850      0x298 E:/SmashProjects/EveryoneHasWitchTime/code-mod-framework/lib/libnx_min/nx/lib\libnx_min.a(hid.o)
 .bss.g_touchTimestamp
                0x0000000000052ae8        0x8 E:/SmashProjects/EveryoneHasWitchTime/code-mod-framework/lib/libnx_min/nx/lib\libnx_min.a(hid.o)
 .bss.g_refCnt  0x0000000000052af0        0x8 E:/SmashProjects/EveryoneHasWitchTime/code-mod-framework/lib/libnx_min/nx/lib\libnx_min.a(time.o)
 .bss.g_timeLocalSystemClock
                0x0000000000052af8        0xc E:/SmashProjects/EveryoneHasWitchTime/code-mod-framework/lib/libnx_min/nx/lib\libnx_min.a(time.o)
 *fill*         0x0000000000052b04        0x4 
 .bss.g_timeNetworkSystemClock
                0x0000000000052b08        0xc E:/SmashProjects/EveryoneHasWitchTime/code-mod-framework/lib/libnx_min/nx/lib\libnx_min.a(time.o)
 *fill*         0x0000000000052b14        0x4 
 .bss.g_timeSrv
                0x0000000000052b18        0xc E:/SmashProjects/EveryoneHasWitchTime/code-mod-framework/lib/libnx_min/nx/lib\libnx_min.a(time.o)
 *fill*         0x0000000000052b24        0x4 
 .bss.g_timeTimeZoneService
                0x0000000000052b28        0xc E:/SmashProjects/EveryoneHasWitchTime/code-mod-framework/lib/libnx_min/nx/lib\libnx_min.a(time.o)
 *fill*         0x0000000000052b34        0x4 
 .bss.g_timeUserSystemClock
                0x0000000000052b38        0xc E:/SmashProjects/EveryoneHasWitchTime/code-mod-framework/lib/libnx_min/nx/lib\libnx_min.a(time.o)
 *fill*         0x0000000000052b44        0x4 
 .bss.__nx_applet_AppletAttribute
                0x0000000000052b48       0x80 E:/SmashProjects/EveryoneHasWitchTime/code-mod-framework/lib/libnx_min/nx/lib\libnx_min.a(applet.o)
                0x0000000000052b48                __nx_applet_AppletAttribute
 .bss.__nx_applet_PerformanceConfiguration
                0x0000000000052bc8        0x8 E:/SmashProjects/EveryoneHasWitchTime/code-mod-framework/lib/libnx_min/nx/lib\libnx_min.a(applet.o)
                0x0000000000052bc8                __nx_applet_PerformanceConfiguration
 .bss.__nx_applet_exit_mode
                0x0000000000052bd0        0x4 E:/SmashProjects/EveryoneHasWitchTime/code-mod-framework/lib/libnx_min/nx/lib\libnx_min.a(applet.o)
                0x0000000000052bd0                __nx_applet_exit_mode
 .bss.g_appletCpuBoostMode
                0x0000000000052bd4        0x4 E:/SmashProjects/EveryoneHasWitchTime/code-mod-framework/lib/libnx_min/nx/lib\libnx_min.a(applet.o)
 .bss.g_appletExitProcessFlag
                0x0000000000052bd8        0x1 E:/SmashProjects/EveryoneHasWitchTime/code-mod-framework/lib/libnx_min/nx/lib\libnx_min.a(applet.o)
 *fill*         0x0000000000052bd9        0x7 
 .bss.g_appletFirstHook
                0x0000000000052be0       0x18 E:/SmashProjects/EveryoneHasWitchTime/code-mod-framework/lib/libnx_min/nx/lib\libnx_min.a(applet.o)
 .bss.g_appletFocusState
                0x0000000000052bf8        0x1 E:/SmashProjects/EveryoneHasWitchTime/code-mod-framework/lib/libnx_min/nx/lib\libnx_min.a(applet.o)
 *fill*         0x0000000000052bf9        0x7 
 .bss.g_appletIApplicationCreator
                0x0000000000052c00        0xc E:/SmashProjects/EveryoneHasWitchTime/code-mod-framework/lib/libnx_min/nx/lib\libnx_min.a(applet.o)
 *fill*         0x0000000000052c0c        0x4 
 .bss.g_appletIAudioController
                0x0000000000052c10        0xc E:/SmashProjects/EveryoneHasWitchTime/code-mod-framework/lib/libnx_min/nx/lib\libnx_min.a(applet.o)
 *fill*         0x0000000000052c1c        0x4 
 .bss.g_appletICommonStateGetter
                0x0000000000052c20        0xc E:/SmashProjects/EveryoneHasWitchTime/code-mod-framework/lib/libnx_min/nx/lib\libnx_min.a(applet.o)
 *fill*         0x0000000000052c2c        0x4 
 .bss.g_appletIDebugFunctions
                0x0000000000052c30        0xc E:/SmashProjects/EveryoneHasWitchTime/code-mod-framework/lib/libnx_min/nx/lib\libnx_min.a(applet.o)
 *fill*         0x0000000000052c3c        0x4 
 .bss.g_appletIDisplayController
                0x0000000000052c40        0xc E:/SmashProjects/EveryoneHasWitchTime/code-mod-framework/lib/libnx_min/nx/lib\libnx_min.a(applet.o)
 *fill*         0x0000000000052c4c        0x4 
 .bss.g_appletIFunctions
                0x0000000000052c50        0xc E:/SmashProjects/EveryoneHasWitchTime/code-mod-framework/lib/libnx_min/nx/lib\libnx_min.a(applet.o)
 *fill*         0x0000000000052c5c        0x4 
 .bss.g_appletIGlobalStateController
                0x0000000000052c60        0xc E:/SmashProjects/EveryoneHasWitchTime/code-mod-framework/lib/libnx_min/nx/lib\libnx_min.a(applet.o)
 *fill*         0x0000000000052c6c        0x4 
 .bss.g_appletILibraryAppletCreator
                0x0000000000052c70        0xc E:/SmashProjects/EveryoneHasWitchTime/code-mod-framework/lib/libnx_min/nx/lib\libnx_min.a(applet.o)
 *fill*         0x0000000000052c7c        0x4 
 .bss.g_appletILibraryAppletSelfAccessor
                0x0000000000052c80        0xc E:/SmashProjects/EveryoneHasWitchTime/code-mod-framework/lib/libnx_min/nx/lib\libnx_min.a(applet.o)
 *fill*         0x0000000000052c8c        0x4 
 .bss.g_appletIProcessWindingController
                0x0000000000052c90        0xc E:/SmashProjects/EveryoneHasWitchTime/code-mod-framework/lib/libnx_min/nx/lib\libnx_min.a(applet.o)
 *fill*         0x0000000000052c9c        0x4 
 .bss.g_appletISelfController
                0x0000000000052ca0        0xc E:/SmashProjects/EveryoneHasWitchTime/code-mod-framework/lib/libnx_min/nx/lib\libnx_min.a(applet.o)
 *fill*         0x0000000000052cac        0x4 
 .bss.g_appletIWindowController
                0x0000000000052cb0        0xc E:/SmashProjects/EveryoneHasWitchTime/code-mod-framework/lib/libnx_min/nx/lib\libnx_min.a(applet.o)
 *fill*         0x0000000000052cbc        0x4 
 .bss.g_appletLibraryAppletLaunchableEvent
                0x0000000000052cc0        0xc E:/SmashProjects/EveryoneHasWitchTime/code-mod-framework/lib/libnx_min/nx/lib\libnx_min.a(applet.o)
 *fill*         0x0000000000052ccc        0x4 
 .bss.g_appletMessageEvent
                0x0000000000052cd0        0xc E:/SmashProjects/EveryoneHasWitchTime/code-mod-framework/lib/libnx_min/nx/lib\libnx_min.a(applet.o)
 .bss.g_appletNotifiedRunning
                0x0000000000052cdc        0x1 E:/SmashProjects/EveryoneHasWitchTime/code-mod-framework/lib/libnx_min/nx/lib\libnx_min.a(applet.o)
 .bss.g_appletOperationMode
                0x0000000000052cdd        0x1 E:/SmashProjects/EveryoneHasWitchTime/code-mod-framework/lib/libnx_min/nx/lib\libnx_min.a(applet.o)
 *fill*         0x0000000000052cde        0x2 
 .bss.g_appletPerformanceMode
                0x0000000000052ce0        0x4 E:/SmashProjects/EveryoneHasWitchTime/code-mod-framework/lib/libnx_min/nx/lib\libnx_min.a(applet.o)
 *fill*         0x0000000000052ce4        0x4 
 .bss.g_appletProxySession
                0x0000000000052ce8        0xc E:/SmashProjects/EveryoneHasWitchTime/code-mod-framework/lib/libnx_min/nx/lib\libnx_min.a(applet.o)
 .bss.g_appletRecordingInitialized
                0x0000000000052cf4        0x4 E:/SmashProjects/EveryoneHasWitchTime/code-mod-framework/lib/libnx_min/nx/lib\libnx_min.a(applet.o)
 .bss.g_appletRecordingTmem
                0x0000000000052cf8       0x28 E:/SmashProjects/EveryoneHasWitchTime/code-mod-framework/lib/libnx_min/nx/lib\libnx_min.a(applet.o)
 .bss.g_appletResourceUserId
                0x0000000000052d20        0x8 E:/SmashProjects/EveryoneHasWitchTime/code-mod-framework/lib/libnx_min/nx/lib\libnx_min.a(applet.o)
 .bss.g_appletSrv
                0x0000000000052d28        0xc E:/SmashProjects/EveryoneHasWitchTime/code-mod-framework/lib/libnx_min/nx/lib\libnx_min.a(applet.o)
 .bss.g_appletThemeColorType
                0x0000000000052d34        0x4 E:/SmashProjects/EveryoneHasWitchTime/code-mod-framework/lib/libnx_min/nx/lib\libnx_min.a(applet.o)
 .bss.g_refCnt  0x0000000000052d38        0x8 E:/SmashProjects/EveryoneHasWitchTime/code-mod-framework/lib/libnx_min/nx/lib\libnx_min.a(applet.o)
 .bss.__bootticks
                0x0000000000052d40        0x8 E:/SmashProjects/EveryoneHasWitchTime/code-mod-framework/lib/libnx_min/nx/lib\libnx_min.a(newlib.o)
 .bss.__boottime
                0x0000000000052d48        0x8 E:/SmashProjects/EveryoneHasWitchTime/code-mod-framework/lib/libnx_min/nx/lib\libnx_min.a(newlib.o)
 .bss.__nx_time_type
                0x0000000000052d50        0x4 E:/SmashProjects/EveryoneHasWitchTime/code-mod-framework/lib/libnx_min/nx/lib\libnx_min.a(newlib.o)
                0x0000000000052d50                __nx_time_type
 *fill*         0x0000000000052d54        0x4 
 .bss.g_threadList
                0x0000000000052d58        0x8 E:/SmashProjects/EveryoneHasWitchTime/code-mod-framework/lib/libnx_min/nx/lib\libnx_min.a(thread.o)
 .bss.g_threadMutex
                0x0000000000052d60        0x4 E:/SmashProjects/EveryoneHasWitchTime/code-mod-framework/lib/libnx_min/nx/lib\libnx_min.a(thread.o)
 *fill*         0x0000000000052d64        0x4 
 .bss.g_tlsDestructors
                0x0000000000052d68       0xd0 E:/SmashProjects/EveryoneHasWitchTime/code-mod-framework/lib/libnx_min/nx/lib\libnx_min.a(thread.o)
 .bss.g_tlsUsageMask
                0x0000000000052e38        0x8 E:/SmashProjects/EveryoneHasWitchTime/code-mod-framework/lib/libnx_min/nx/lib\libnx_min.a(thread.o)
 .bss.g_JitKernelPatchCached
                0x0000000000052e40        0x1 E:/SmashProjects/EveryoneHasWitchTime/code-mod-framework/lib/libnx_min/nx/lib\libnx_min.a(detect.o)
 .bss.g_JitKernelPatchDetected
                0x0000000000052e41        0x1 E:/SmashProjects/EveryoneHasWitchTime/code-mod-framework/lib/libnx_min/nx/lib\libnx_min.a(detect.o)
 *fill*         0x0000000000052e42        0x2 
 .bss.g_JitKernelPatchMutex
                0x0000000000052e44        0x4 E:/SmashProjects/EveryoneHasWitchTime/code-mod-framework/lib/libnx_min/nx/lib\libnx_min.a(detect.o)
 .bss.g_Version
                0x0000000000052e48        0x4 E:/SmashProjects/EveryoneHasWitchTime/code-mod-framework/lib/libnx_min/nx/lib\libnx_min.a(detect.o)
 .bss.g_VersionCached
                0x0000000000052e4c        0x1 E:/SmashProjects/EveryoneHasWitchTime/code-mod-framework/lib/libnx_min/nx/lib\libnx_min.a(detect.o)
 *fill*         0x0000000000052e4d        0x3 
 .bss.g_VersionMutex
                0x0000000000052e50        0x4 E:/SmashProjects/EveryoneHasWitchTime/code-mod-framework/lib/libnx_min/nx/lib\libnx_min.a(detect.o)
 *fill*         0x0000000000052e54        0x4 
 .bss.g_apmISession
                0x0000000000052e58        0xc E:/SmashProjects/EveryoneHasWitchTime/code-mod-framework/lib/libnx_min/nx/lib\libnx_min.a(apm.o)
 *fill*         0x0000000000052e64        0x4 
 .bss.g_apmSrv  0x0000000000052e68        0xc E:/SmashProjects/EveryoneHasWitchTime/code-mod-framework/lib/libnx_min/nx/lib\libnx_min.a(apm.o)
 *fill*         0x0000000000052e74        0x4 
 .bss.g_refCnt  0x0000000000052e78        0x8 E:/SmashProjects/EveryoneHasWitchTime/code-mod-framework/lib/libnx_min/nx/lib\libnx_min.a(apm.o)
 .bss.__malloc_current_mallinfo
                0x0000000000052e80       0x28 e:/appsprograms/devkitpro/devkita64/bin/../lib/gcc/aarch64-none-elf/8.3.0/../../../../aarch64-none-elf/lib/pic\libg.a(lib_a-mallocr.o)
                0x0000000000052e80                __malloc_current_mallinfo
 .bss.__malloc_max_sbrked_mem
                0x0000000000052ea8        0x8 e:/appsprograms/devkitpro/devkita64/bin/../lib/gcc/aarch64-none-elf/8.3.0/../../../../aarch64-none-elf/lib/pic\libg.a(lib_a-mallocr.o)
                0x0000000000052ea8                __malloc_max_sbrked_mem
 .bss.__malloc_max_total_mem
                0x0000000000052eb0        0x8 e:/appsprograms/devkitpro/devkita64/bin/../lib/gcc/aarch64-none-elf/8.3.0/../../../../aarch64-none-elf/lib/pic\libg.a(lib_a-mallocr.o)
                0x0000000000052eb0                __malloc_max_total_mem
 .bss.__malloc_top_pad
                0x0000000000052eb8        0x8 e:/appsprograms/devkitpro/devkita64/bin/../lib/gcc/aarch64-none-elf/8.3.0/../../../../aarch64-none-elf/lib/pic\libg.a(lib_a-mallocr.o)
                0x0000000000052eb8                __malloc_top_pad
 .bss.__malloc_recursive_mutex
                0x0000000000052ec0        0xc e:/appsprograms/devkitpro/devkita64/bin/../lib/gcc/aarch64-none-elf/8.3.0/../../../../aarch64-none-elf/lib/pic\libg.a(lib_a-mlock.o)
 .bss.alloced.4086
                0x0000000000052ecc        0x4 e:/appsprograms/devkitpro/devkita64/bin/../lib/gcc/aarch64-none-elf/8.3.0/../../../../aarch64-none-elf/lib/pic\libg.a(lib_a-setenv_r.o)
 .bss.__atexit_recursive_mutex
                0x0000000000052ed0        0xc e:/appsprograms/devkitpro/devkita64/bin/../lib/gcc/aarch64-none-elf/8.3.0/../../../../aarch64-none-elf/lib/pic\libg.a(lib_a-__call_atexit.o)
                0x0000000000052ed0                __atexit_recursive_mutex
 *fill*         0x0000000000052edc        0x4 
 .bss.initial_env
                0x0000000000052ee0        0x8 e:/appsprograms/devkitpro/devkita64/bin/../lib/gcc/aarch64-none-elf/8.3.0/../../../../aarch64-none-elf/lib/pic\libg.a(lib_a-environ.o)
 .bss.__env_recursive_mutex
                0x0000000000052ee8        0xc e:/appsprograms/devkitpro/devkita64/bin/../lib/gcc/aarch64-none-elf/8.3.0/../../../../aarch64-none-elf/lib/pic\libg.a(lib_a-envlock.o)
 *fill*         0x0000000000052ef4        0x4 
 .bss._PathLocale
                0x0000000000052ef8        0x8 e:/appsprograms/devkitpro/devkita64/bin/../lib/gcc/aarch64-none-elf/8.3.0/../../../../aarch64-none-elf/lib/pic\libg.a(lib_a-locale.o)
                0x0000000000052ef8                _PathLocale
 .bss.global_locale_string
                0x0000000000052f00       0xe7 e:/appsprograms/devkitpro/devkita64/bin/../lib/gcc/aarch64-none-elf/8.3.0/../../../../aarch64-none-elf/lib/pic\libg.a(lib_a-locale.o)
 *fill*         0x0000000000052fe7        0x1 
 .bss.new_categories.4568
                0x0000000000052fe8       0xe0 e:/appsprograms/devkitpro/devkita64/bin/../lib/gcc/aarch64-none-elf/8.3.0/../../../../aarch64-none-elf/lib/pic\libg.a(lib_a-locale.o)
 .bss.saved_categories.4569
                0x00000000000530c8       0xe0 e:/appsprograms/devkitpro/devkita64/bin/../lib/gcc/aarch64-none-elf/8.3.0/../../../../aarch64-none-elf/lib/pic\libg.a(lib_a-locale.o)
 .bss.heap_start.5295
                0x00000000000531a8        0x8 e:/appsprograms/devkitpro/devkita64/bin/../lib/gcc/aarch64-none-elf/8.3.0/../../../../aarch64-none-elf/lib/pic\libsysbase.a(sbrk.o)
 .bss.fake_heap_end
                0x00000000000531b0        0x8 e:/appsprograms/devkitpro/devkita64/bin/../lib/gcc/aarch64-none-elf/8.3.0/../../../../aarch64-none-elf/lib/pic\libsysbase.a(malloc_vars.o)
                0x00000000000531b0                fake_heap_end
 .bss.fake_heap_start
                0x00000000000531b8        0x8 e:/appsprograms/devkitpro/devkita64/bin/../lib/gcc/aarch64-none-elf/8.3.0/../../../../aarch64-none-elf/lib/pic\libsysbase.a(malloc_vars.o)
                0x00000000000531b8                fake_heap_start
 .bss.temp_cwd  0x00000000000531c0      0x400 e:/appsprograms/devkitpro/devkita64/bin/../lib/gcc/aarch64-none-elf/8.3.0/../../../../aarch64-none-elf/lib/pic\libsysbase.a(chdir.o)
 *(COMMON)
 COMMON         0x00000000000535c0        0xc E:/SmashProjects/EveryoneHasWitchTime/code-mod-framework/lib/libnx_min/nx/lib\libnx_min.a(argv.o)
                0x00000000000535c0                __system_argv
                0x00000000000535c8                __system_argc
 *fill*         0x00000000000535cc        0x4 
 COMMON         0x00000000000535d0      0x348 E:/SmashProjects/EveryoneHasWitchTime/code-mod-framework/lib/libnx_min/nx/lib\libnx_min.a(init.o)
                0x00000000000535d0                __nx_exceptiondump
                0x0000000000053910                __stack_top
                0x0000000000053918                . = ALIGN (0x8)
                0x0000000000053918                __tls_start = .
                0x0000000000057d20                . = (. + (SIZEOF (.tdata) + SIZEOF (.tbss)))
 *fill*         0x0000000000053918     0x4408 
                0x0000000000057d20                __tls_end = .
                0x0000000000057d20                __bss_end__ = .
                0x0000000000057d20                __end__ = ABSOLUTE (.)
                0x0000000000058000                . = ALIGN (0x1000)
                0x0000000000058000                __argdata__ = ABSOLUTE (.)

/DISCARD/
 *(.group .comment .note)

.stab
 *(.stab)

.stabstr
 *(.stabstr)

.stab.excl
 *(.stab.excl)

.stab.exclstr
 *(.stab.exclstr)

.stab.index
 *(.stab.index)

.stab.indexstr
 *(.stab.indexstr)

.debug
 *(.debug)

.line
 *(.line)

.debug_srcinfo
 *(.debug_srcinfo)

.debug_sfnames
 *(.debug_sfnames)

.debug_aranges
 *(.debug_aranges)

.debug_pubnames
 *(.debug_pubnames)

.debug_info
 *(.debug_info)

.debug_abbrev
 *(.debug_abbrev)

.debug_line
 *(.debug_line)

.debug_frame
 *(.debug_frame)

.debug_str
 *(.debug_str)

.debug_loc
 *(.debug_loc)

.debug_macinfo
 *(.debug_macinfo)
LOAD e:/appsprograms/devkitpro/devkita64/bin/../lib/gcc/aarch64-none-elf/8.3.0/pic/crti.o
LOAD e:/appsprograms/devkitpro/devkita64/bin/../lib/gcc/aarch64-none-elf/8.3.0/pic/crtbegin.o
LOAD main.o
LOAD acmd_wrapper.o
LOAD saltysd_helper.o
LOAD lua_bind_hash.o
LOAD l2c_imports.o
LOAD raygun_printer.o
LOAD E:/SmashProjects/EveryoneHasWitchTime/code-mod-framework/lib/libnx_min/nx/lib\libnx_min.a
LOAD e:/appsprograms/devkitpro/devkita64/bin/../lib/gcc/aarch64-none-elf/8.3.0/../../../../aarch64-none-elf/lib/pic\libstdc++.a
LOAD e:/appsprograms/devkitpro/devkita64/bin/../lib/gcc/aarch64-none-elf/8.3.0/../../../../aarch64-none-elf/lib/pic\libm.a
START GROUP
LOAD e:/appsprograms/devkitpro/devkita64/bin/../lib/gcc/aarch64-none-elf/8.3.0/pic\libgcc.a
LOAD e:/appsprograms/devkitpro/devkita64/bin/../lib/gcc/aarch64-none-elf/8.3.0/../../../../aarch64-none-elf/lib/pic\libg.a
LOAD e:/appsprograms/devkitpro/devkita64/bin/../lib/gcc/aarch64-none-elf/8.3.0/../../../../aarch64-none-elf/lib/pic\libc.a
LOAD e:/appsprograms/devkitpro/devkita64/bin/../lib/gcc/aarch64-none-elf/8.3.0/../../../../aarch64-none-elf/lib/pic\libsysbase.a
END GROUP
LOAD e:/appsprograms/devkitpro/devkita64/bin/../lib/gcc/aarch64-none-elf/8.3.0/pic/crtend.o
LOAD e:/appsprograms/devkitpro/devkita64/bin/../lib/gcc/aarch64-none-elf/8.3.0/pic/crtn.o
OUTPUT(E:/SmashProjects/EveryoneHasWitchTime/EveryoneHasWitchTime.elf elf64-littleaarch64)
